

Microchip MPLAB XC8 Assembler V2.31 build 20201012212115 
                                                                                               Sat Apr 10 10:14:06 2021

Microchip MPLAB XC8 C Compiler v2.31 (Free license) build 20201012212115 Og1 
     1                           	processor	16F1717
     2                           	pagewidth 120
     3                           	opt	flic
     4                           	psect	nvBANK0,global,class=BANK0,space=1,delta=1,noexec
     5                           	psect	cinit,global,class=CODE,merge=1,delta=2
     6                           	psect	bssCOMMON,global,class=COMMON,space=1,delta=1,noexec
     7                           	psect	bssBANK0,global,class=BANK0,space=1,delta=1,noexec
     8                           	psect	cstackCOMMON,global,class=COMMON,space=1,delta=1,noexec
     9                           	psect	cstackBANK0,global,class=BANK0,space=1,delta=1,noexec
    10                           	psect	maintext,global,class=CODE,merge=1,split=1,delta=2
    11                           	psect	text1,local,class=CODE,merge=1,delta=2
    12                           	psect	text2,local,class=CODE,merge=1,delta=2
    13                           	psect	text3,local,class=CODE,merge=1,delta=2
    14                           	psect	text4,local,class=CODE,merge=1,delta=2
    15                           	psect	text5,local,class=CODE,merge=1,delta=2
    16                           	psect	text6,local,class=CODE,merge=1,delta=2
    17                           	psect	text7,local,class=CODE,merge=1,delta=2
    18                           	psect	text8,local,class=CODE,merge=1,delta=2
    19                           	psect	text9,local,class=CODE,merge=1,delta=2
    20                           	psect	text10,local,class=CODE,merge=1,delta=2
    21                           	psect	text11,local,class=CODE,merge=1,delta=2
    22                           	psect	text12,local,class=CODE,merge=1,delta=2
    23                           	psect	text13,local,class=CODE,merge=1,delta=2
    24                           	psect	text14,local,class=CODE,merge=1,delta=2
    25                           	psect	text15,local,class=CODE,merge=1,delta=2,group=1
    26                           	psect	text16,local,class=CODE,merge=1,delta=2
    27                           	psect	text17,local,class=CODE,merge=1,delta=2
    28                           	psect	text18,local,class=CODE,merge=1,delta=2
    29                           	psect	text19,local,class=CODE,merge=1,delta=2
    30                           	psect	text20,local,class=CODE,merge=1,delta=2
    31                           	psect	text21,local,class=CODE,merge=1,delta=2
    32                           	psect	text22,local,class=CODE,merge=1,delta=2
    33                           	psect	text23,local,class=CODE,merge=1,delta=2
    34                           	psect	text24,local,class=CODE,merge=1,delta=2
    35                           	psect	config,global,abs,ovrld,class=CONFIG,space=4,delta=2,noexec
    36                           	dabs	1,0x7E,2
    37  0000                     
    38                           ; Version 2.20
    39                           ; Generated 12/02/2020 GMT
    40                           ; 
    41                           ; Copyright © 2020, Microchip Technology Inc. and its subsidiaries ("Microchip")
    42                           ; All rights reserved.
    43                           ; 
    44                           ; This software is developed by Microchip Technology Inc. and its subsidiaries ("Microch
      +                          ip").
    45                           ; 
    46                           ; Redistribution and use in source and binary forms, with or without modification, are
    47                           ; permitted provided that the following conditions are met:
    48                           ; 
    49                           ;     1. Redistributions of source code must retain the above copyright notice, this lis
      +                          t of
    50                           ;        conditions and the following disclaimer.
    51                           ; 
    52                           ;     2. Redistributions in binary form must reproduce the above copyright notice, this 
      +                          list
    53                           ;        of conditions and the following disclaimer in the documentation and/or other
    54                           ;        materials provided with the distribution.
    55                           ; 
    56                           ;     3. Microchip's name may not be used to endorse or promote products derived from th
      +                          is
    57                           ;        software without specific prior written permission.
    58                           ; 
    59                           ; THIS SOFTWARE IS PROVIDED BY MICROCHIP "AS IS" AND ANY EXPRESS OR IMPLIED WARRANTIES,
    60                           ; INCLUDING, BUT NOT LIMITED TO, THE IMPLIED WARRANTIES OF MERCHANTABILITY AND FITNESS F
      +                          OR
    61                           ; PURPOSE ARE DISCLAIMED.  IN NO EVENT SHALL MICROCHIP BE LIABLE FOR ANY DIRECT, INDIREC
      +                          T,
    62                           ; INCIDENTAL, SPECIAL, EXEMPLARY, OR CONSEQUENTIAL DAMAGES (INCLUDING BUT NOT LIMITED TO
    63                           ; PROCUREMENT OF SUBSTITUTE GOODS OR SERVICES; LOSS OF USE, DATA OR PROFITS; OR BUSINESS
    64                           ; INTERRUPTION) HOWSOEVER CAUSED AND ON ANY THEORY OF LIABILITY, WHETHER IN CONTRACT, ST
      +                          RICT
    65                           ; LIABILITY, OR TORT (INCLUDING NEGLIGENCE OR OTHERWISE) ARISING IN ANY WAY OUT OF THE U
      +                          SE OF
    66                           ; THIS SOFTWARE, EVEN IF ADVISED OF THE POSSIBILITY OF SUCH DAMAGE.
    67                           ; 
    68                           ; 
    69                           ; Code-generator required, PIC16F1717 Definitions
    70                           ; 
    71                           ; SFR Addresses
    72  0000                     	;# 
    73  0001                     	;# 
    74  0002                     	;# 
    75  0003                     	;# 
    76  0004                     	;# 
    77  0005                     	;# 
    78  0006                     	;# 
    79  0007                     	;# 
    80  0008                     	;# 
    81  0009                     	;# 
    82  000A                     	;# 
    83  000B                     	;# 
    84  000C                     	;# 
    85  000D                     	;# 
    86  000E                     	;# 
    87  000F                     	;# 
    88  0010                     	;# 
    89  0011                     	;# 
    90  0012                     	;# 
    91  0013                     	;# 
    92  0015                     	;# 
    93  0016                     	;# 
    94  0016                     	;# 
    95  0017                     	;# 
    96  0018                     	;# 
    97  0019                     	;# 
    98  001A                     	;# 
    99  001B                     	;# 
   100  001C                     	;# 
   101  008C                     	;# 
   102  008D                     	;# 
   103  008E                     	;# 
   104  008F                     	;# 
   105  0090                     	;# 
   106  0091                     	;# 
   107  0092                     	;# 
   108  0093                     	;# 
   109  0095                     	;# 
   110  0096                     	;# 
   111  0097                     	;# 
   112  0098                     	;# 
   113  0099                     	;# 
   114  009A                     	;# 
   115  009B                     	;# 
   116  009B                     	;# 
   117  009C                     	;# 
   118  009D                     	;# 
   119  009E                     	;# 
   120  009F                     	;# 
   121  010C                     	;# 
   122  010D                     	;# 
   123  010E                     	;# 
   124  010F                     	;# 
   125  0110                     	;# 
   126  0111                     	;# 
   127  0112                     	;# 
   128  0113                     	;# 
   129  0114                     	;# 
   130  0115                     	;# 
   131  0116                     	;# 
   132  0117                     	;# 
   133  0118                     	;# 
   134  0119                     	;# 
   135  011A                     	;# 
   136  011B                     	;# 
   137  011B                     	;# 
   138  011C                     	;# 
   139  018C                     	;# 
   140  018D                     	;# 
   141  018E                     	;# 
   142  018F                     	;# 
   143  0190                     	;# 
   144  0191                     	;# 
   145  0191                     	;# 
   146  0192                     	;# 
   147  0193                     	;# 
   148  0193                     	;# 
   149  0194                     	;# 
   150  0195                     	;# 
   151  0196                     	;# 
   152  0197                     	;# 
   153  0199                     	;# 
   154  0199                     	;# 
   155  0199                     	;# 
   156  019A                     	;# 
   157  019A                     	;# 
   158  019A                     	;# 
   159  019B                     	;# 
   160  019B                     	;# 
   161  019B                     	;# 
   162  019B                     	;# 
   163  019B                     	;# 
   164  019C                     	;# 
   165  019C                     	;# 
   166  019C                     	;# 
   167  019D                     	;# 
   168  019D                     	;# 
   169  019D                     	;# 
   170  019E                     	;# 
   171  019E                     	;# 
   172  019E                     	;# 
   173  019F                     	;# 
   174  019F                     	;# 
   175  019F                     	;# 
   176  019F                     	;# 
   177  019F                     	;# 
   178  020C                     	;# 
   179  020D                     	;# 
   180  020E                     	;# 
   181  020F                     	;# 
   182  0210                     	;# 
   183  0211                     	;# 
   184  0211                     	;# 
   185  0212                     	;# 
   186  0212                     	;# 
   187  0213                     	;# 
   188  0213                     	;# 
   189  0214                     	;# 
   190  0214                     	;# 
   191  0215                     	;# 
   192  0215                     	;# 
   193  0215                     	;# 
   194  0215                     	;# 
   195  0216                     	;# 
   196  0216                     	;# 
   197  0217                     	;# 
   198  0217                     	;# 
   199  028C                     	;# 
   200  028D                     	;# 
   201  028E                     	;# 
   202  028F                     	;# 
   203  0290                     	;# 
   204  0291                     	;# 
   205  0291                     	;# 
   206  0292                     	;# 
   207  0293                     	;# 
   208  0293                     	;# 
   209  0298                     	;# 
   210  0298                     	;# 
   211  0299                     	;# 
   212  029A                     	;# 
   213  029A                     	;# 
   214  029E                     	;# 
   215  030C                     	;# 
   216  030D                     	;# 
   217  030E                     	;# 
   218  030F                     	;# 
   219  0310                     	;# 
   220  038C                     	;# 
   221  038D                     	;# 
   222  038E                     	;# 
   223  038F                     	;# 
   224  0390                     	;# 
   225  0391                     	;# 
   226  0392                     	;# 
   227  0393                     	;# 
   228  0394                     	;# 
   229  0395                     	;# 
   230  0396                     	;# 
   231  0397                     	;# 
   232  0398                     	;# 
   233  0399                     	;# 
   234  039D                     	;# 
   235  039E                     	;# 
   236  039F                     	;# 
   237  0415                     	;# 
   238  0416                     	;# 
   239  0417                     	;# 
   240  041C                     	;# 
   241  041D                     	;# 
   242  041E                     	;# 
   243  0498                     	;# 
   244  0498                     	;# 
   245  0499                     	;# 
   246  049A                     	;# 
   247  049B                     	;# 
   248  049B                     	;# 
   249  049C                     	;# 
   250  049D                     	;# 
   251  049E                     	;# 
   252  049F                     	;# 
   253  0511                     	;# 
   254  0515                     	;# 
   255  0617                     	;# 
   256  0618                     	;# 
   257  0619                     	;# 
   258  0619                     	;# 
   259  061A                     	;# 
   260  061B                     	;# 
   261  061C                     	;# 
   262  061C                     	;# 
   263  0691                     	;# 
   264  0692                     	;# 
   265  0693                     	;# 
   266  0694                     	;# 
   267  0695                     	;# 
   268  0696                     	;# 
   269  0697                     	;# 
   270  0698                     	;# 
   271  0699                     	;# 
   272  069A                     	;# 
   273  069B                     	;# 
   274  069C                     	;# 
   275  069D                     	;# 
   276  069E                     	;# 
   277  069F                     	;# 
   278  0E0F                     	;# 
   279  0E10                     	;# 
   280  0E11                     	;# 
   281  0E12                     	;# 
   282  0E13                     	;# 
   283  0E14                     	;# 
   284  0E15                     	;# 
   285  0E17                     	;# 
   286  0E20                     	;# 
   287  0E21                     	;# 
   288  0E22                     	;# 
   289  0E24                     	;# 
   290  0E25                     	;# 
   291  0E28                     	;# 
   292  0E29                     	;# 
   293  0E2A                     	;# 
   294  0E2B                     	;# 
   295  0E90                     	;# 
   296  0E91                     	;# 
   297  0E92                     	;# 
   298  0E93                     	;# 
   299  0E94                     	;# 
   300  0E95                     	;# 
   301  0E96                     	;# 
   302  0E97                     	;# 
   303  0E98                     	;# 
   304  0E99                     	;# 
   305  0E9A                     	;# 
   306  0E9B                     	;# 
   307  0E9C                     	;# 
   308  0E9D                     	;# 
   309  0E9E                     	;# 
   310  0E9F                     	;# 
   311  0EA0                     	;# 
   312  0EA1                     	;# 
   313  0EA2                     	;# 
   314  0EA3                     	;# 
   315  0EA4                     	;# 
   316  0EA5                     	;# 
   317  0EA6                     	;# 
   318  0EA7                     	;# 
   319  0EA8                     	;# 
   320  0EA9                     	;# 
   321  0EAA                     	;# 
   322  0EAB                     	;# 
   323  0EAC                     	;# 
   324  0EAD                     	;# 
   325  0EAE                     	;# 
   326  0EAF                     	;# 
   327  0EB0                     	;# 
   328  0EB1                     	;# 
   329  0EB2                     	;# 
   330  0F0F                     	;# 
   331  0F10                     	;# 
   332  0F11                     	;# 
   333  0F12                     	;# 
   334  0F13                     	;# 
   335  0F14                     	;# 
   336  0F15                     	;# 
   337  0F16                     	;# 
   338  0F17                     	;# 
   339  0F18                     	;# 
   340  0F19                     	;# 
   341  0F1A                     	;# 
   342  0F1B                     	;# 
   343  0F1C                     	;# 
   344  0F1D                     	;# 
   345  0F1E                     	;# 
   346  0F1F                     	;# 
   347  0F20                     	;# 
   348  0F21                     	;# 
   349  0F22                     	;# 
   350  0F23                     	;# 
   351  0F24                     	;# 
   352  0F25                     	;# 
   353  0F26                     	;# 
   354  0F27                     	;# 
   355  0F28                     	;# 
   356  0F29                     	;# 
   357  0F2A                     	;# 
   358  0F2B                     	;# 
   359  0F2C                     	;# 
   360  0F2D                     	;# 
   361  0F2E                     	;# 
   362  0F2F                     	;# 
   363  0F30                     	;# 
   364  0F31                     	;# 
   365  0F32                     	;# 
   366  0F33                     	;# 
   367  0F34                     	;# 
   368  0F35                     	;# 
   369  0F36                     	;# 
   370  0F37                     	;# 
   371  0FE4                     	;# 
   372  0FE5                     	;# 
   373  0FE6                     	;# 
   374  0FE7                     	;# 
   375  0FE8                     	;# 
   376  0FE9                     	;# 
   377  0FEA                     	;# 
   378  0FEB                     	;# 
   379  0FED                     	;# 
   380  0FEE                     	;# 
   381  0FEF                     	;# 
   382  0000                     	;# 
   383  0001                     	;# 
   384  0002                     	;# 
   385  0003                     	;# 
   386  0004                     	;# 
   387  0005                     	;# 
   388  0006                     	;# 
   389  0007                     	;# 
   390  0008                     	;# 
   391  0009                     	;# 
   392  000A                     	;# 
   393  000B                     	;# 
   394  000C                     	;# 
   395  000D                     	;# 
   396  000E                     	;# 
   397  000F                     	;# 
   398  0010                     	;# 
   399  0011                     	;# 
   400  0012                     	;# 
   401  0013                     	;# 
   402  0015                     	;# 
   403  0016                     	;# 
   404  0016                     	;# 
   405  0017                     	;# 
   406  0018                     	;# 
   407  0019                     	;# 
   408  001A                     	;# 
   409  001B                     	;# 
   410  001C                     	;# 
   411  008C                     	;# 
   412  008D                     	;# 
   413  008E                     	;# 
   414  008F                     	;# 
   415  0090                     	;# 
   416  0091                     	;# 
   417  0092                     	;# 
   418  0093                     	;# 
   419  0095                     	;# 
   420  0096                     	;# 
   421  0097                     	;# 
   422  0098                     	;# 
   423  0099                     	;# 
   424  009A                     	;# 
   425  009B                     	;# 
   426  009B                     	;# 
   427  009C                     	;# 
   428  009D                     	;# 
   429  009E                     	;# 
   430  009F                     	;# 
   431  010C                     	;# 
   432  010D                     	;# 
   433  010E                     	;# 
   434  010F                     	;# 
   435  0110                     	;# 
   436  0111                     	;# 
   437  0112                     	;# 
   438  0113                     	;# 
   439  0114                     	;# 
   440  0115                     	;# 
   441  0116                     	;# 
   442  0117                     	;# 
   443  0118                     	;# 
   444  0119                     	;# 
   445  011A                     	;# 
   446  011B                     	;# 
   447  011B                     	;# 
   448  011C                     	;# 
   449  018C                     	;# 
   450  018D                     	;# 
   451  018E                     	;# 
   452  018F                     	;# 
   453  0190                     	;# 
   454  0191                     	;# 
   455  0191                     	;# 
   456  0192                     	;# 
   457  0193                     	;# 
   458  0193                     	;# 
   459  0194                     	;# 
   460  0195                     	;# 
   461  0196                     	;# 
   462  0197                     	;# 
   463  0199                     	;# 
   464  0199                     	;# 
   465  0199                     	;# 
   466  019A                     	;# 
   467  019A                     	;# 
   468  019A                     	;# 
   469  019B                     	;# 
   470  019B                     	;# 
   471  019B                     	;# 
   472  019B                     	;# 
   473  019B                     	;# 
   474  019C                     	;# 
   475  019C                     	;# 
   476  019C                     	;# 
   477  019D                     	;# 
   478  019D                     	;# 
   479  019D                     	;# 
   480  019E                     	;# 
   481  019E                     	;# 
   482  019E                     	;# 
   483  019F                     	;# 
   484  019F                     	;# 
   485  019F                     	;# 
   486  019F                     	;# 
   487  019F                     	;# 
   488  020C                     	;# 
   489  020D                     	;# 
   490  020E                     	;# 
   491  020F                     	;# 
   492  0210                     	;# 
   493  0211                     	;# 
   494  0211                     	;# 
   495  0212                     	;# 
   496  0212                     	;# 
   497  0213                     	;# 
   498  0213                     	;# 
   499  0214                     	;# 
   500  0214                     	;# 
   501  0215                     	;# 
   502  0215                     	;# 
   503  0215                     	;# 
   504  0215                     	;# 
   505  0216                     	;# 
   506  0216                     	;# 
   507  0217                     	;# 
   508  0217                     	;# 
   509  028C                     	;# 
   510  028D                     	;# 
   511  028E                     	;# 
   512  028F                     	;# 
   513  0290                     	;# 
   514  0291                     	;# 
   515  0291                     	;# 
   516  0292                     	;# 
   517  0293                     	;# 
   518  0293                     	;# 
   519  0298                     	;# 
   520  0298                     	;# 
   521  0299                     	;# 
   522  029A                     	;# 
   523  029A                     	;# 
   524  029E                     	;# 
   525  030C                     	;# 
   526  030D                     	;# 
   527  030E                     	;# 
   528  030F                     	;# 
   529  0310                     	;# 
   530  038C                     	;# 
   531  038D                     	;# 
   532  038E                     	;# 
   533  038F                     	;# 
   534  0390                     	;# 
   535  0391                     	;# 
   536  0392                     	;# 
   537  0393                     	;# 
   538  0394                     	;# 
   539  0395                     	;# 
   540  0396                     	;# 
   541  0397                     	;# 
   542  0398                     	;# 
   543  0399                     	;# 
   544  039D                     	;# 
   545  039E                     	;# 
   546  039F                     	;# 
   547  0415                     	;# 
   548  0416                     	;# 
   549  0417                     	;# 
   550  041C                     	;# 
   551  041D                     	;# 
   552  041E                     	;# 
   553  0498                     	;# 
   554  0498                     	;# 
   555  0499                     	;# 
   556  049A                     	;# 
   557  049B                     	;# 
   558  049B                     	;# 
   559  049C                     	;# 
   560  049D                     	;# 
   561  049E                     	;# 
   562  049F                     	;# 
   563  0511                     	;# 
   564  0515                     	;# 
   565  0617                     	;# 
   566  0618                     	;# 
   567  0619                     	;# 
   568  0619                     	;# 
   569  061A                     	;# 
   570  061B                     	;# 
   571  061C                     	;# 
   572  061C                     	;# 
   573  0691                     	;# 
   574  0692                     	;# 
   575  0693                     	;# 
   576  0694                     	;# 
   577  0695                     	;# 
   578  0696                     	;# 
   579  0697                     	;# 
   580  0698                     	;# 
   581  0699                     	;# 
   582  069A                     	;# 
   583  069B                     	;# 
   584  069C                     	;# 
   585  069D                     	;# 
   586  069E                     	;# 
   587  069F                     	;# 
   588  0E0F                     	;# 
   589  0E10                     	;# 
   590  0E11                     	;# 
   591  0E12                     	;# 
   592  0E13                     	;# 
   593  0E14                     	;# 
   594  0E15                     	;# 
   595  0E17                     	;# 
   596  0E20                     	;# 
   597  0E21                     	;# 
   598  0E22                     	;# 
   599  0E24                     	;# 
   600  0E25                     	;# 
   601  0E28                     	;# 
   602  0E29                     	;# 
   603  0E2A                     	;# 
   604  0E2B                     	;# 
   605  0E90                     	;# 
   606  0E91                     	;# 
   607  0E92                     	;# 
   608  0E93                     	;# 
   609  0E94                     	;# 
   610  0E95                     	;# 
   611  0E96                     	;# 
   612  0E97                     	;# 
   613  0E98                     	;# 
   614  0E99                     	;# 
   615  0E9A                     	;# 
   616  0E9B                     	;# 
   617  0E9C                     	;# 
   618  0E9D                     	;# 
   619  0E9E                     	;# 
   620  0E9F                     	;# 
   621  0EA0                     	;# 
   622  0EA1                     	;# 
   623  0EA2                     	;# 
   624  0EA3                     	;# 
   625  0EA4                     	;# 
   626  0EA5                     	;# 
   627  0EA6                     	;# 
   628  0EA7                     	;# 
   629  0EA8                     	;# 
   630  0EA9                     	;# 
   631  0EAA                     	;# 
   632  0EAB                     	;# 
   633  0EAC                     	;# 
   634  0EAD                     	;# 
   635  0EAE                     	;# 
   636  0EAF                     	;# 
   637  0EB0                     	;# 
   638  0EB1                     	;# 
   639  0EB2                     	;# 
   640  0F0F                     	;# 
   641  0F10                     	;# 
   642  0F11                     	;# 
   643  0F12                     	;# 
   644  0F13                     	;# 
   645  0F14                     	;# 
   646  0F15                     	;# 
   647  0F16                     	;# 
   648  0F17                     	;# 
   649  0F18                     	;# 
   650  0F19                     	;# 
   651  0F1A                     	;# 
   652  0F1B                     	;# 
   653  0F1C                     	;# 
   654  0F1D                     	;# 
   655  0F1E                     	;# 
   656  0F1F                     	;# 
   657  0F20                     	;# 
   658  0F21                     	;# 
   659  0F22                     	;# 
   660  0F23                     	;# 
   661  0F24                     	;# 
   662  0F25                     	;# 
   663  0F26                     	;# 
   664  0F27                     	;# 
   665  0F28                     	;# 
   666  0F29                     	;# 
   667  0F2A                     	;# 
   668  0F2B                     	;# 
   669  0F2C                     	;# 
   670  0F2D                     	;# 
   671  0F2E                     	;# 
   672  0F2F                     	;# 
   673  0F30                     	;# 
   674  0F31                     	;# 
   675  0F32                     	;# 
   676  0F33                     	;# 
   677  0F34                     	;# 
   678  0F35                     	;# 
   679  0F36                     	;# 
   680  0F37                     	;# 
   681  0FE4                     	;# 
   682  0FE5                     	;# 
   683  0FE6                     	;# 
   684  0FE7                     	;# 
   685  0FE8                     	;# 
   686  0FE9                     	;# 
   687  0FEA                     	;# 
   688  0FEB                     	;# 
   689  0FED                     	;# 
   690  0FEE                     	;# 
   691  0FEF                     	;# 
   692  0000                     	;# 
   693  0001                     	;# 
   694  0002                     	;# 
   695  0003                     	;# 
   696  0004                     	;# 
   697  0005                     	;# 
   698  0006                     	;# 
   699  0007                     	;# 
   700  0008                     	;# 
   701  0009                     	;# 
   702  000A                     	;# 
   703  000B                     	;# 
   704  000C                     	;# 
   705  000D                     	;# 
   706  000E                     	;# 
   707  000F                     	;# 
   708  0010                     	;# 
   709  0011                     	;# 
   710  0012                     	;# 
   711  0013                     	;# 
   712  0015                     	;# 
   713  0016                     	;# 
   714  0016                     	;# 
   715  0017                     	;# 
   716  0018                     	;# 
   717  0019                     	;# 
   718  001A                     	;# 
   719  001B                     	;# 
   720  001C                     	;# 
   721  008C                     	;# 
   722  008D                     	;# 
   723  008E                     	;# 
   724  008F                     	;# 
   725  0090                     	;# 
   726  0091                     	;# 
   727  0092                     	;# 
   728  0093                     	;# 
   729  0095                     	;# 
   730  0096                     	;# 
   731  0097                     	;# 
   732  0098                     	;# 
   733  0099                     	;# 
   734  009A                     	;# 
   735  009B                     	;# 
   736  009B                     	;# 
   737  009C                     	;# 
   738  009D                     	;# 
   739  009E                     	;# 
   740  009F                     	;# 
   741  010C                     	;# 
   742  010D                     	;# 
   743  010E                     	;# 
   744  010F                     	;# 
   745  0110                     	;# 
   746  0111                     	;# 
   747  0112                     	;# 
   748  0113                     	;# 
   749  0114                     	;# 
   750  0115                     	;# 
   751  0116                     	;# 
   752  0117                     	;# 
   753  0118                     	;# 
   754  0119                     	;# 
   755  011A                     	;# 
   756  011B                     	;# 
   757  011B                     	;# 
   758  011C                     	;# 
   759  018C                     	;# 
   760  018D                     	;# 
   761  018E                     	;# 
   762  018F                     	;# 
   763  0190                     	;# 
   764  0191                     	;# 
   765  0191                     	;# 
   766  0192                     	;# 
   767  0193                     	;# 
   768  0193                     	;# 
   769  0194                     	;# 
   770  0195                     	;# 
   771  0196                     	;# 
   772  0197                     	;# 
   773  0199                     	;# 
   774  0199                     	;# 
   775  0199                     	;# 
   776  019A                     	;# 
   777  019A                     	;# 
   778  019A                     	;# 
   779  019B                     	;# 
   780  019B                     	;# 
   781  019B                     	;# 
   782  019B                     	;# 
   783  019B                     	;# 
   784  019C                     	;# 
   785  019C                     	;# 
   786  019C                     	;# 
   787  019D                     	;# 
   788  019D                     	;# 
   789  019D                     	;# 
   790  019E                     	;# 
   791  019E                     	;# 
   792  019E                     	;# 
   793  019F                     	;# 
   794  019F                     	;# 
   795  019F                     	;# 
   796  019F                     	;# 
   797  019F                     	;# 
   798  020C                     	;# 
   799  020D                     	;# 
   800  020E                     	;# 
   801  020F                     	;# 
   802  0210                     	;# 
   803  0211                     	;# 
   804  0211                     	;# 
   805  0212                     	;# 
   806  0212                     	;# 
   807  0213                     	;# 
   808  0213                     	;# 
   809  0214                     	;# 
   810  0214                     	;# 
   811  0215                     	;# 
   812  0215                     	;# 
   813  0215                     	;# 
   814  0215                     	;# 
   815  0216                     	;# 
   816  0216                     	;# 
   817  0217                     	;# 
   818  0217                     	;# 
   819  028C                     	;# 
   820  028D                     	;# 
   821  028E                     	;# 
   822  028F                     	;# 
   823  0290                     	;# 
   824  0291                     	;# 
   825  0291                     	;# 
   826  0292                     	;# 
   827  0293                     	;# 
   828  0293                     	;# 
   829  0298                     	;# 
   830  0298                     	;# 
   831  0299                     	;# 
   832  029A                     	;# 
   833  029A                     	;# 
   834  029E                     	;# 
   835  030C                     	;# 
   836  030D                     	;# 
   837  030E                     	;# 
   838  030F                     	;# 
   839  0310                     	;# 
   840  038C                     	;# 
   841  038D                     	;# 
   842  038E                     	;# 
   843  038F                     	;# 
   844  0390                     	;# 
   845  0391                     	;# 
   846  0392                     	;# 
   847  0393                     	;# 
   848  0394                     	;# 
   849  0395                     	;# 
   850  0396                     	;# 
   851  0397                     	;# 
   852  0398                     	;# 
   853  0399                     	;# 
   854  039D                     	;# 
   855  039E                     	;# 
   856  039F                     	;# 
   857  0415                     	;# 
   858  0416                     	;# 
   859  0417                     	;# 
   860  041C                     	;# 
   861  041D                     	;# 
   862  041E                     	;# 
   863  0498                     	;# 
   864  0498                     	;# 
   865  0499                     	;# 
   866  049A                     	;# 
   867  049B                     	;# 
   868  049B                     	;# 
   869  049C                     	;# 
   870  049D                     	;# 
   871  049E                     	;# 
   872  049F                     	;# 
   873  0511                     	;# 
   874  0515                     	;# 
   875  0617                     	;# 
   876  0618                     	;# 
   877  0619                     	;# 
   878  0619                     	;# 
   879  061A                     	;# 
   880  061B                     	;# 
   881  061C                     	;# 
   882  061C                     	;# 
   883  0691                     	;# 
   884  0692                     	;# 
   885  0693                     	;# 
   886  0694                     	;# 
   887  0695                     	;# 
   888  0696                     	;# 
   889  0697                     	;# 
   890  0698                     	;# 
   891  0699                     	;# 
   892  069A                     	;# 
   893  069B                     	;# 
   894  069C                     	;# 
   895  069D                     	;# 
   896  069E                     	;# 
   897  069F                     	;# 
   898  0E0F                     	;# 
   899  0E10                     	;# 
   900  0E11                     	;# 
   901  0E12                     	;# 
   902  0E13                     	;# 
   903  0E14                     	;# 
   904  0E15                     	;# 
   905  0E17                     	;# 
   906  0E20                     	;# 
   907  0E21                     	;# 
   908  0E22                     	;# 
   909  0E24                     	;# 
   910  0E25                     	;# 
   911  0E28                     	;# 
   912  0E29                     	;# 
   913  0E2A                     	;# 
   914  0E2B                     	;# 
   915  0E90                     	;# 
   916  0E91                     	;# 
   917  0E92                     	;# 
   918  0E93                     	;# 
   919  0E94                     	;# 
   920  0E95                     	;# 
   921  0E96                     	;# 
   922  0E97                     	;# 
   923  0E98                     	;# 
   924  0E99                     	;# 
   925  0E9A                     	;# 
   926  0E9B                     	;# 
   927  0E9C                     	;# 
   928  0E9D                     	;# 
   929  0E9E                     	;# 
   930  0E9F                     	;# 
   931  0EA0                     	;# 
   932  0EA1                     	;# 
   933  0EA2                     	;# 
   934  0EA3                     	;# 
   935  0EA4                     	;# 
   936  0EA5                     	;# 
   937  0EA6                     	;# 
   938  0EA7                     	;# 
   939  0EA8                     	;# 
   940  0EA9                     	;# 
   941  0EAA                     	;# 
   942  0EAB                     	;# 
   943  0EAC                     	;# 
   944  0EAD                     	;# 
   945  0EAE                     	;# 
   946  0EAF                     	;# 
   947  0EB0                     	;# 
   948  0EB1                     	;# 
   949  0EB2                     	;# 
   950  0F0F                     	;# 
   951  0F10                     	;# 
   952  0F11                     	;# 
   953  0F12                     	;# 
   954  0F13                     	;# 
   955  0F14                     	;# 
   956  0F15                     	;# 
   957  0F16                     	;# 
   958  0F17                     	;# 
   959  0F18                     	;# 
   960  0F19                     	;# 
   961  0F1A                     	;# 
   962  0F1B                     	;# 
   963  0F1C                     	;# 
   964  0F1D                     	;# 
   965  0F1E                     	;# 
   966  0F1F                     	;# 
   967  0F20                     	;# 
   968  0F21                     	;# 
   969  0F22                     	;# 
   970  0F23                     	;# 
   971  0F24                     	;# 
   972  0F25                     	;# 
   973  0F26                     	;# 
   974  0F27                     	;# 
   975  0F28                     	;# 
   976  0F29                     	;# 
   977  0F2A                     	;# 
   978  0F2B                     	;# 
   979  0F2C                     	;# 
   980  0F2D                     	;# 
   981  0F2E                     	;# 
   982  0F2F                     	;# 
   983  0F30                     	;# 
   984  0F31                     	;# 
   985  0F32                     	;# 
   986  0F33                     	;# 
   987  0F34                     	;# 
   988  0F35                     	;# 
   989  0F36                     	;# 
   990  0F37                     	;# 
   991  0FE4                     	;# 
   992  0FE5                     	;# 
   993  0FE6                     	;# 
   994  0FE7                     	;# 
   995  0FE8                     	;# 
   996  0FE9                     	;# 
   997  0FEA                     	;# 
   998  0FEB                     	;# 
   999  0FED                     	;# 
  1000  0FEE                     	;# 
  1001  0FEF                     	;# 
  1002  0000                     	;# 
  1003  0001                     	;# 
  1004  0002                     	;# 
  1005  0003                     	;# 
  1006  0004                     	;# 
  1007  0005                     	;# 
  1008  0006                     	;# 
  1009  0007                     	;# 
  1010  0008                     	;# 
  1011  0009                     	;# 
  1012  000A                     	;# 
  1013  000B                     	;# 
  1014  000C                     	;# 
  1015  000D                     	;# 
  1016  000E                     	;# 
  1017  000F                     	;# 
  1018  0010                     	;# 
  1019  0011                     	;# 
  1020  0012                     	;# 
  1021  0013                     	;# 
  1022  0015                     	;# 
  1023  0016                     	;# 
  1024  0016                     	;# 
  1025  0017                     	;# 
  1026  0018                     	;# 
  1027  0019                     	;# 
  1028  001A                     	;# 
  1029  001B                     	;# 
  1030  001C                     	;# 
  1031  008C                     	;# 
  1032  008D                     	;# 
  1033  008E                     	;# 
  1034  008F                     	;# 
  1035  0090                     	;# 
  1036  0091                     	;# 
  1037  0092                     	;# 
  1038  0093                     	;# 
  1039  0095                     	;# 
  1040  0096                     	;# 
  1041  0097                     	;# 
  1042  0098                     	;# 
  1043  0099                     	;# 
  1044  009A                     	;# 
  1045  009B                     	;# 
  1046  009B                     	;# 
  1047  009C                     	;# 
  1048  009D                     	;# 
  1049  009E                     	;# 
  1050  009F                     	;# 
  1051  010C                     	;# 
  1052  010D                     	;# 
  1053  010E                     	;# 
  1054  010F                     	;# 
  1055  0110                     	;# 
  1056  0111                     	;# 
  1057  0112                     	;# 
  1058  0113                     	;# 
  1059  0114                     	;# 
  1060  0115                     	;# 
  1061  0116                     	;# 
  1062  0117                     	;# 
  1063  0118                     	;# 
  1064  0119                     	;# 
  1065  011A                     	;# 
  1066  011B                     	;# 
  1067  011B                     	;# 
  1068  011C                     	;# 
  1069  018C                     	;# 
  1070  018D                     	;# 
  1071  018E                     	;# 
  1072  018F                     	;# 
  1073  0190                     	;# 
  1074  0191                     	;# 
  1075  0191                     	;# 
  1076  0192                     	;# 
  1077  0193                     	;# 
  1078  0193                     	;# 
  1079  0194                     	;# 
  1080  0195                     	;# 
  1081  0196                     	;# 
  1082  0197                     	;# 
  1083  0199                     	;# 
  1084  0199                     	;# 
  1085  0199                     	;# 
  1086  019A                     	;# 
  1087  019A                     	;# 
  1088  019A                     	;# 
  1089  019B                     	;# 
  1090  019B                     	;# 
  1091  019B                     	;# 
  1092  019B                     	;# 
  1093  019B                     	;# 
  1094  019C                     	;# 
  1095  019C                     	;# 
  1096  019C                     	;# 
  1097  019D                     	;# 
  1098  019D                     	;# 
  1099  019D                     	;# 
  1100  019E                     	;# 
  1101  019E                     	;# 
  1102  019E                     	;# 
  1103  019F                     	;# 
  1104  019F                     	;# 
  1105  019F                     	;# 
  1106  019F                     	;# 
  1107  019F                     	;# 
  1108  020C                     	;# 
  1109  020D                     	;# 
  1110  020E                     	;# 
  1111  020F                     	;# 
  1112  0210                     	;# 
  1113  0211                     	;# 
  1114  0211                     	;# 
  1115  0212                     	;# 
  1116  0212                     	;# 
  1117  0213                     	;# 
  1118  0213                     	;# 
  1119  0214                     	;# 
  1120  0214                     	;# 
  1121  0215                     	;# 
  1122  0215                     	;# 
  1123  0215                     	;# 
  1124  0215                     	;# 
  1125  0216                     	;# 
  1126  0216                     	;# 
  1127  0217                     	;# 
  1128  0217                     	;# 
  1129  028C                     	;# 
  1130  028D                     	;# 
  1131  028E                     	;# 
  1132  028F                     	;# 
  1133  0290                     	;# 
  1134  0291                     	;# 
  1135  0291                     	;# 
  1136  0292                     	;# 
  1137  0293                     	;# 
  1138  0293                     	;# 
  1139  0298                     	;# 
  1140  0298                     	;# 
  1141  0299                     	;# 
  1142  029A                     	;# 
  1143  029A                     	;# 
  1144  029E                     	;# 
  1145  030C                     	;# 
  1146  030D                     	;# 
  1147  030E                     	;# 
  1148  030F                     	;# 
  1149  0310                     	;# 
  1150  038C                     	;# 
  1151  038D                     	;# 
  1152  038E                     	;# 
  1153  038F                     	;# 
  1154  0390                     	;# 
  1155  0391                     	;# 
  1156  0392                     	;# 
  1157  0393                     	;# 
  1158  0394                     	;# 
  1159  0395                     	;# 
  1160  0396                     	;# 
  1161  0397                     	;# 
  1162  0398                     	;# 
  1163  0399                     	;# 
  1164  039D                     	;# 
  1165  039E                     	;# 
  1166  039F                     	;# 
  1167  0415                     	;# 
  1168  0416                     	;# 
  1169  0417                     	;# 
  1170  041C                     	;# 
  1171  041D                     	;# 
  1172  041E                     	;# 
  1173  0498                     	;# 
  1174  0498                     	;# 
  1175  0499                     	;# 
  1176  049A                     	;# 
  1177  049B                     	;# 
  1178  049B                     	;# 
  1179  049C                     	;# 
  1180  049D                     	;# 
  1181  049E                     	;# 
  1182  049F                     	;# 
  1183  0511                     	;# 
  1184  0515                     	;# 
  1185  0617                     	;# 
  1186  0618                     	;# 
  1187  0619                     	;# 
  1188  0619                     	;# 
  1189  061A                     	;# 
  1190  061B                     	;# 
  1191  061C                     	;# 
  1192  061C                     	;# 
  1193  0691                     	;# 
  1194  0692                     	;# 
  1195  0693                     	;# 
  1196  0694                     	;# 
  1197  0695                     	;# 
  1198  0696                     	;# 
  1199  0697                     	;# 
  1200  0698                     	;# 
  1201  0699                     	;# 
  1202  069A                     	;# 
  1203  069B                     	;# 
  1204  069C                     	;# 
  1205  069D                     	;# 
  1206  069E                     	;# 
  1207  069F                     	;# 
  1208  0E0F                     	;# 
  1209  0E10                     	;# 
  1210  0E11                     	;# 
  1211  0E12                     	;# 
  1212  0E13                     	;# 
  1213  0E14                     	;# 
  1214  0E15                     	;# 
  1215  0E17                     	;# 
  1216  0E20                     	;# 
  1217  0E21                     	;# 
  1218  0E22                     	;# 
  1219  0E24                     	;# 
  1220  0E25                     	;# 
  1221  0E28                     	;# 
  1222  0E29                     	;# 
  1223  0E2A                     	;# 
  1224  0E2B                     	;# 
  1225  0E90                     	;# 
  1226  0E91                     	;# 
  1227  0E92                     	;# 
  1228  0E93                     	;# 
  1229  0E94                     	;# 
  1230  0E95                     	;# 
  1231  0E96                     	;# 
  1232  0E97                     	;# 
  1233  0E98                     	;# 
  1234  0E99                     	;# 
  1235  0E9A                     	;# 
  1236  0E9B                     	;# 
  1237  0E9C                     	;# 
  1238  0E9D                     	;# 
  1239  0E9E                     	;# 
  1240  0E9F                     	;# 
  1241  0EA0                     	;# 
  1242  0EA1                     	;# 
  1243  0EA2                     	;# 
  1244  0EA3                     	;# 
  1245  0EA4                     	;# 
  1246  0EA5                     	;# 
  1247  0EA6                     	;# 
  1248  0EA7                     	;# 
  1249  0EA8                     	;# 
  1250  0EA9                     	;# 
  1251  0EAA                     	;# 
  1252  0EAB                     	;# 
  1253  0EAC                     	;# 
  1254  0EAD                     	;# 
  1255  0EAE                     	;# 
  1256  0EAF                     	;# 
  1257  0EB0                     	;# 
  1258  0EB1                     	;# 
  1259  0EB2                     	;# 
  1260  0F0F                     	;# 
  1261  0F10                     	;# 
  1262  0F11                     	;# 
  1263  0F12                     	;# 
  1264  0F13                     	;# 
  1265  0F14                     	;# 
  1266  0F15                     	;# 
  1267  0F16                     	;# 
  1268  0F17                     	;# 
  1269  0F18                     	;# 
  1270  0F19                     	;# 
  1271  0F1A                     	;# 
  1272  0F1B                     	;# 
  1273  0F1C                     	;# 
  1274  0F1D                     	;# 
  1275  0F1E                     	;# 
  1276  0F1F                     	;# 
  1277  0F20                     	;# 
  1278  0F21                     	;# 
  1279  0F22                     	;# 
  1280  0F23                     	;# 
  1281  0F24                     	;# 
  1282  0F25                     	;# 
  1283  0F26                     	;# 
  1284  0F27                     	;# 
  1285  0F28                     	;# 
  1286  0F29                     	;# 
  1287  0F2A                     	;# 
  1288  0F2B                     	;# 
  1289  0F2C                     	;# 
  1290  0F2D                     	;# 
  1291  0F2E                     	;# 
  1292  0F2F                     	;# 
  1293  0F30                     	;# 
  1294  0F31                     	;# 
  1295  0F32                     	;# 
  1296  0F33                     	;# 
  1297  0F34                     	;# 
  1298  0F35                     	;# 
  1299  0F36                     	;# 
  1300  0F37                     	;# 
  1301  0FE4                     	;# 
  1302  0FE5                     	;# 
  1303  0FE6                     	;# 
  1304  0FE7                     	;# 
  1305  0FE8                     	;# 
  1306  0FE9                     	;# 
  1307  0FEA                     	;# 
  1308  0FEB                     	;# 
  1309  0FED                     	;# 
  1310  0FEE                     	;# 
  1311  0FEF                     	;# 
  1312  0000                     	;# 
  1313  0001                     	;# 
  1314  0002                     	;# 
  1315  0003                     	;# 
  1316  0004                     	;# 
  1317  0005                     	;# 
  1318  0006                     	;# 
  1319  0007                     	;# 
  1320  0008                     	;# 
  1321  0009                     	;# 
  1322  000A                     	;# 
  1323  000B                     	;# 
  1324  000C                     	;# 
  1325  000D                     	;# 
  1326  000E                     	;# 
  1327  000F                     	;# 
  1328  0010                     	;# 
  1329  0011                     	;# 
  1330  0012                     	;# 
  1331  0013                     	;# 
  1332  0015                     	;# 
  1333  0016                     	;# 
  1334  0016                     	;# 
  1335  0017                     	;# 
  1336  0018                     	;# 
  1337  0019                     	;# 
  1338  001A                     	;# 
  1339  001B                     	;# 
  1340  001C                     	;# 
  1341  008C                     	;# 
  1342  008D                     	;# 
  1343  008E                     	;# 
  1344  008F                     	;# 
  1345  0090                     	;# 
  1346  0091                     	;# 
  1347  0092                     	;# 
  1348  0093                     	;# 
  1349  0095                     	;# 
  1350  0096                     	;# 
  1351  0097                     	;# 
  1352  0098                     	;# 
  1353  0099                     	;# 
  1354  009A                     	;# 
  1355  009B                     	;# 
  1356  009B                     	;# 
  1357  009C                     	;# 
  1358  009D                     	;# 
  1359  009E                     	;# 
  1360  009F                     	;# 
  1361  010C                     	;# 
  1362  010D                     	;# 
  1363  010E                     	;# 
  1364  010F                     	;# 
  1365  0110                     	;# 
  1366  0111                     	;# 
  1367  0112                     	;# 
  1368  0113                     	;# 
  1369  0114                     	;# 
  1370  0115                     	;# 
  1371  0116                     	;# 
  1372  0117                     	;# 
  1373  0118                     	;# 
  1374  0119                     	;# 
  1375  011A                     	;# 
  1376  011B                     	;# 
  1377  011B                     	;# 
  1378  011C                     	;# 
  1379  018C                     	;# 
  1380  018D                     	;# 
  1381  018E                     	;# 
  1382  018F                     	;# 
  1383  0190                     	;# 
  1384  0191                     	;# 
  1385  0191                     	;# 
  1386  0192                     	;# 
  1387  0193                     	;# 
  1388  0193                     	;# 
  1389  0194                     	;# 
  1390  0195                     	;# 
  1391  0196                     	;# 
  1392  0197                     	;# 
  1393  0199                     	;# 
  1394  0199                     	;# 
  1395  0199                     	;# 
  1396  019A                     	;# 
  1397  019A                     	;# 
  1398  019A                     	;# 
  1399  019B                     	;# 
  1400  019B                     	;# 
  1401  019B                     	;# 
  1402  019B                     	;# 
  1403  019B                     	;# 
  1404  019C                     	;# 
  1405  019C                     	;# 
  1406  019C                     	;# 
  1407  019D                     	;# 
  1408  019D                     	;# 
  1409  019D                     	;# 
  1410  019E                     	;# 
  1411  019E                     	;# 
  1412  019E                     	;# 
  1413  019F                     	;# 
  1414  019F                     	;# 
  1415  019F                     	;# 
  1416  019F                     	;# 
  1417  019F                     	;# 
  1418  020C                     	;# 
  1419  020D                     	;# 
  1420  020E                     	;# 
  1421  020F                     	;# 
  1422  0210                     	;# 
  1423  0211                     	;# 
  1424  0211                     	;# 
  1425  0212                     	;# 
  1426  0212                     	;# 
  1427  0213                     	;# 
  1428  0213                     	;# 
  1429  0214                     	;# 
  1430  0214                     	;# 
  1431  0215                     	;# 
  1432  0215                     	;# 
  1433  0215                     	;# 
  1434  0215                     	;# 
  1435  0216                     	;# 
  1436  0216                     	;# 
  1437  0217                     	;# 
  1438  0217                     	;# 
  1439  028C                     	;# 
  1440  028D                     	;# 
  1441  028E                     	;# 
  1442  028F                     	;# 
  1443  0290                     	;# 
  1444  0291                     	;# 
  1445  0291                     	;# 
  1446  0292                     	;# 
  1447  0293                     	;# 
  1448  0293                     	;# 
  1449  0298                     	;# 
  1450  0298                     	;# 
  1451  0299                     	;# 
  1452  029A                     	;# 
  1453  029A                     	;# 
  1454  029E                     	;# 
  1455  030C                     	;# 
  1456  030D                     	;# 
  1457  030E                     	;# 
  1458  030F                     	;# 
  1459  0310                     	;# 
  1460  038C                     	;# 
  1461  038D                     	;# 
  1462  038E                     	;# 
  1463  038F                     	;# 
  1464  0390                     	;# 
  1465  0391                     	;# 
  1466  0392                     	;# 
  1467  0393                     	;# 
  1468  0394                     	;# 
  1469  0395                     	;# 
  1470  0396                     	;# 
  1471  0397                     	;# 
  1472  0398                     	;# 
  1473  0399                     	;# 
  1474  039D                     	;# 
  1475  039E                     	;# 
  1476  039F                     	;# 
  1477  0415                     	;# 
  1478  0416                     	;# 
  1479  0417                     	;# 
  1480  041C                     	;# 
  1481  041D                     	;# 
  1482  041E                     	;# 
  1483  0498                     	;# 
  1484  0498                     	;# 
  1485  0499                     	;# 
  1486  049A                     	;# 
  1487  049B                     	;# 
  1488  049B                     	;# 
  1489  049C                     	;# 
  1490  049D                     	;# 
  1491  049E                     	;# 
  1492  049F                     	;# 
  1493  0511                     	;# 
  1494  0515                     	;# 
  1495  0617                     	;# 
  1496  0618                     	;# 
  1497  0619                     	;# 
  1498  0619                     	;# 
  1499  061A                     	;# 
  1500  061B                     	;# 
  1501  061C                     	;# 
  1502  061C                     	;# 
  1503  0691                     	;# 
  1504  0692                     	;# 
  1505  0693                     	;# 
  1506  0694                     	;# 
  1507  0695                     	;# 
  1508  0696                     	;# 
  1509  0697                     	;# 
  1510  0698                     	;# 
  1511  0699                     	;# 
  1512  069A                     	;# 
  1513  069B                     	;# 
  1514  069C                     	;# 
  1515  069D                     	;# 
  1516  069E                     	;# 
  1517  069F                     	;# 
  1518  0E0F                     	;# 
  1519  0E10                     	;# 
  1520  0E11                     	;# 
  1521  0E12                     	;# 
  1522  0E13                     	;# 
  1523  0E14                     	;# 
  1524  0E15                     	;# 
  1525  0E17                     	;# 
  1526  0E20                     	;# 
  1527  0E21                     	;# 
  1528  0E22                     	;# 
  1529  0E24                     	;# 
  1530  0E25                     	;# 
  1531  0E28                     	;# 
  1532  0E29                     	;# 
  1533  0E2A                     	;# 
  1534  0E2B                     	;# 
  1535  0E90                     	;# 
  1536  0E91                     	;# 
  1537  0E92                     	;# 
  1538  0E93                     	;# 
  1539  0E94                     	;# 
  1540  0E95                     	;# 
  1541  0E96                     	;# 
  1542  0E97                     	;# 
  1543  0E98                     	;# 
  1544  0E99                     	;# 
  1545  0E9A                     	;# 
  1546  0E9B                     	;# 
  1547  0E9C                     	;# 
  1548  0E9D                     	;# 
  1549  0E9E                     	;# 
  1550  0E9F                     	;# 
  1551  0EA0                     	;# 
  1552  0EA1                     	;# 
  1553  0EA2                     	;# 
  1554  0EA3                     	;# 
  1555  0EA4                     	;# 
  1556  0EA5                     	;# 
  1557  0EA6                     	;# 
  1558  0EA7                     	;# 
  1559  0EA8                     	;# 
  1560  0EA9                     	;# 
  1561  0EAA                     	;# 
  1562  0EAB                     	;# 
  1563  0EAC                     	;# 
  1564  0EAD                     	;# 
  1565  0EAE                     	;# 
  1566  0EAF                     	;# 
  1567  0EB0                     	;# 
  1568  0EB1                     	;# 
  1569  0EB2                     	;# 
  1570  0F0F                     	;# 
  1571  0F10                     	;# 
  1572  0F11                     	;# 
  1573  0F12                     	;# 
  1574  0F13                     	;# 
  1575  0F14                     	;# 
  1576  0F15                     	;# 
  1577  0F16                     	;# 
  1578  0F17                     	;# 
  1579  0F18                     	;# 
  1580  0F19                     	;# 
  1581  0F1A                     	;# 
  1582  0F1B                     	;# 
  1583  0F1C                     	;# 
  1584  0F1D                     	;# 
  1585  0F1E                     	;# 
  1586  0F1F                     	;# 
  1587  0F20                     	;# 
  1588  0F21                     	;# 
  1589  0F22                     	;# 
  1590  0F23                     	;# 
  1591  0F24                     	;# 
  1592  0F25                     	;# 
  1593  0F26                     	;# 
  1594  0F27                     	;# 
  1595  0F28                     	;# 
  1596  0F29                     	;# 
  1597  0F2A                     	;# 
  1598  0F2B                     	;# 
  1599  0F2C                     	;# 
  1600  0F2D                     	;# 
  1601  0F2E                     	;# 
  1602  0F2F                     	;# 
  1603  0F30                     	;# 
  1604  0F31                     	;# 
  1605  0F32                     	;# 
  1606  0F33                     	;# 
  1607  0F34                     	;# 
  1608  0F35                     	;# 
  1609  0F36                     	;# 
  1610  0F37                     	;# 
  1611  0FE4                     	;# 
  1612  0FE5                     	;# 
  1613  0FE6                     	;# 
  1614  0FE7                     	;# 
  1615  0FE8                     	;# 
  1616  0FE9                     	;# 
  1617  0FEA                     	;# 
  1618  0FEB                     	;# 
  1619  0FED                     	;# 
  1620  0FEE                     	;# 
  1621  0FEF                     	;# 
  1622  0000                     	;# 
  1623  0001                     	;# 
  1624  0002                     	;# 
  1625  0003                     	;# 
  1626  0004                     	;# 
  1627  0005                     	;# 
  1628  0006                     	;# 
  1629  0007                     	;# 
  1630  0008                     	;# 
  1631  0009                     	;# 
  1632  000A                     	;# 
  1633  000B                     	;# 
  1634  000C                     	;# 
  1635  000D                     	;# 
  1636  000E                     	;# 
  1637  000F                     	;# 
  1638  0010                     	;# 
  1639  0011                     	;# 
  1640  0012                     	;# 
  1641  0013                     	;# 
  1642  0015                     	;# 
  1643  0016                     	;# 
  1644  0016                     	;# 
  1645  0017                     	;# 
  1646  0018                     	;# 
  1647  0019                     	;# 
  1648  001A                     	;# 
  1649  001B                     	;# 
  1650  001C                     	;# 
  1651  008C                     	;# 
  1652  008D                     	;# 
  1653  008E                     	;# 
  1654  008F                     	;# 
  1655  0090                     	;# 
  1656  0091                     	;# 
  1657  0092                     	;# 
  1658  0093                     	;# 
  1659  0095                     	;# 
  1660  0096                     	;# 
  1661  0097                     	;# 
  1662  0098                     	;# 
  1663  0099                     	;# 
  1664  009A                     	;# 
  1665  009B                     	;# 
  1666  009B                     	;# 
  1667  009C                     	;# 
  1668  009D                     	;# 
  1669  009E                     	;# 
  1670  009F                     	;# 
  1671  010C                     	;# 
  1672  010D                     	;# 
  1673  010E                     	;# 
  1674  010F                     	;# 
  1675  0110                     	;# 
  1676  0111                     	;# 
  1677  0112                     	;# 
  1678  0113                     	;# 
  1679  0114                     	;# 
  1680  0115                     	;# 
  1681  0116                     	;# 
  1682  0117                     	;# 
  1683  0118                     	;# 
  1684  0119                     	;# 
  1685  011A                     	;# 
  1686  011B                     	;# 
  1687  011B                     	;# 
  1688  011C                     	;# 
  1689  018C                     	;# 
  1690  018D                     	;# 
  1691  018E                     	;# 
  1692  018F                     	;# 
  1693  0190                     	;# 
  1694  0191                     	;# 
  1695  0191                     	;# 
  1696  0192                     	;# 
  1697  0193                     	;# 
  1698  0193                     	;# 
  1699  0194                     	;# 
  1700  0195                     	;# 
  1701  0196                     	;# 
  1702  0197                     	;# 
  1703  0199                     	;# 
  1704  0199                     	;# 
  1705  0199                     	;# 
  1706  019A                     	;# 
  1707  019A                     	;# 
  1708  019A                     	;# 
  1709  019B                     	;# 
  1710  019B                     	;# 
  1711  019B                     	;# 
  1712  019B                     	;# 
  1713  019B                     	;# 
  1714  019C                     	;# 
  1715  019C                     	;# 
  1716  019C                     	;# 
  1717  019D                     	;# 
  1718  019D                     	;# 
  1719  019D                     	;# 
  1720  019E                     	;# 
  1721  019E                     	;# 
  1722  019E                     	;# 
  1723  019F                     	;# 
  1724  019F                     	;# 
  1725  019F                     	;# 
  1726  019F                     	;# 
  1727  019F                     	;# 
  1728  020C                     	;# 
  1729  020D                     	;# 
  1730  020E                     	;# 
  1731  020F                     	;# 
  1732  0210                     	;# 
  1733  0211                     	;# 
  1734  0211                     	;# 
  1735  0212                     	;# 
  1736  0212                     	;# 
  1737  0213                     	;# 
  1738  0213                     	;# 
  1739  0214                     	;# 
  1740  0214                     	;# 
  1741  0215                     	;# 
  1742  0215                     	;# 
  1743  0215                     	;# 
  1744  0215                     	;# 
  1745  0216                     	;# 
  1746  0216                     	;# 
  1747  0217                     	;# 
  1748  0217                     	;# 
  1749  028C                     	;# 
  1750  028D                     	;# 
  1751  028E                     	;# 
  1752  028F                     	;# 
  1753  0290                     	;# 
  1754  0291                     	;# 
  1755  0291                     	;# 
  1756  0292                     	;# 
  1757  0293                     	;# 
  1758  0293                     	;# 
  1759  0298                     	;# 
  1760  0298                     	;# 
  1761  0299                     	;# 
  1762  029A                     	;# 
  1763  029A                     	;# 
  1764  029E                     	;# 
  1765  030C                     	;# 
  1766  030D                     	;# 
  1767  030E                     	;# 
  1768  030F                     	;# 
  1769  0310                     	;# 
  1770  038C                     	;# 
  1771  038D                     	;# 
  1772  038E                     	;# 
  1773  038F                     	;# 
  1774  0390                     	;# 
  1775  0391                     	;# 
  1776  0392                     	;# 
  1777  0393                     	;# 
  1778  0394                     	;# 
  1779  0395                     	;# 
  1780  0396                     	;# 
  1781  0397                     	;# 
  1782  0398                     	;# 
  1783  0399                     	;# 
  1784  039D                     	;# 
  1785  039E                     	;# 
  1786  039F                     	;# 
  1787  0415                     	;# 
  1788  0416                     	;# 
  1789  0417                     	;# 
  1790  041C                     	;# 
  1791  041D                     	;# 
  1792  041E                     	;# 
  1793  0498                     	;# 
  1794  0498                     	;# 
  1795  0499                     	;# 
  1796  049A                     	;# 
  1797  049B                     	;# 
  1798  049B                     	;# 
  1799  049C                     	;# 
  1800  049D                     	;# 
  1801  049E                     	;# 
  1802  049F                     	;# 
  1803  0511                     	;# 
  1804  0515                     	;# 
  1805  0617                     	;# 
  1806  0618                     	;# 
  1807  0619                     	;# 
  1808  0619                     	;# 
  1809  061A                     	;# 
  1810  061B                     	;# 
  1811  061C                     	;# 
  1812  061C                     	;# 
  1813  0691                     	;# 
  1814  0692                     	;# 
  1815  0693                     	;# 
  1816  0694                     	;# 
  1817  0695                     	;# 
  1818  0696                     	;# 
  1819  0697                     	;# 
  1820  0698                     	;# 
  1821  0699                     	;# 
  1822  069A                     	;# 
  1823  069B                     	;# 
  1824  069C                     	;# 
  1825  069D                     	;# 
  1826  069E                     	;# 
  1827  069F                     	;# 
  1828  0E0F                     	;# 
  1829  0E10                     	;# 
  1830  0E11                     	;# 
  1831  0E12                     	;# 
  1832  0E13                     	;# 
  1833  0E14                     	;# 
  1834  0E15                     	;# 
  1835  0E17                     	;# 
  1836  0E20                     	;# 
  1837  0E21                     	;# 
  1838  0E22                     	;# 
  1839  0E24                     	;# 
  1840  0E25                     	;# 
  1841  0E28                     	;# 
  1842  0E29                     	;# 
  1843  0E2A                     	;# 
  1844  0E2B                     	;# 
  1845  0E90                     	;# 
  1846  0E91                     	;# 
  1847  0E92                     	;# 
  1848  0E93                     	;# 
  1849  0E94                     	;# 
  1850  0E95                     	;# 
  1851  0E96                     	;# 
  1852  0E97                     	;# 
  1853  0E98                     	;# 
  1854  0E99                     	;# 
  1855  0E9A                     	;# 
  1856  0E9B                     	;# 
  1857  0E9C                     	;# 
  1858  0E9D                     	;# 
  1859  0E9E                     	;# 
  1860  0E9F                     	;# 
  1861  0EA0                     	;# 
  1862  0EA1                     	;# 
  1863  0EA2                     	;# 
  1864  0EA3                     	;# 
  1865  0EA4                     	;# 
  1866  0EA5                     	;# 
  1867  0EA6                     	;# 
  1868  0EA7                     	;# 
  1869  0EA8                     	;# 
  1870  0EA9                     	;# 
  1871  0EAA                     	;# 
  1872  0EAB                     	;# 
  1873  0EAC                     	;# 
  1874  0EAD                     	;# 
  1875  0EAE                     	;# 
  1876  0EAF                     	;# 
  1877  0EB0                     	;# 
  1878  0EB1                     	;# 
  1879  0EB2                     	;# 
  1880  0F0F                     	;# 
  1881  0F10                     	;# 
  1882  0F11                     	;# 
  1883  0F12                     	;# 
  1884  0F13                     	;# 
  1885  0F14                     	;# 
  1886  0F15                     	;# 
  1887  0F16                     	;# 
  1888  0F17                     	;# 
  1889  0F18                     	;# 
  1890  0F19                     	;# 
  1891  0F1A                     	;# 
  1892  0F1B                     	;# 
  1893  0F1C                     	;# 
  1894  0F1D                     	;# 
  1895  0F1E                     	;# 
  1896  0F1F                     	;# 
  1897  0F20                     	;# 
  1898  0F21                     	;# 
  1899  0F22                     	;# 
  1900  0F23                     	;# 
  1901  0F24                     	;# 
  1902  0F25                     	;# 
  1903  0F26                     	;# 
  1904  0F27                     	;# 
  1905  0F28                     	;# 
  1906  0F29                     	;# 
  1907  0F2A                     	;# 
  1908  0F2B                     	;# 
  1909  0F2C                     	;# 
  1910  0F2D                     	;# 
  1911  0F2E                     	;# 
  1912  0F2F                     	;# 
  1913  0F30                     	;# 
  1914  0F31                     	;# 
  1915  0F32                     	;# 
  1916  0F33                     	;# 
  1917  0F34                     	;# 
  1918  0F35                     	;# 
  1919  0F36                     	;# 
  1920  0F37                     	;# 
  1921  0FE4                     	;# 
  1922  0FE5                     	;# 
  1923  0FE6                     	;# 
  1924  0FE7                     	;# 
  1925  0FE8                     	;# 
  1926  0FE9                     	;# 
  1927  0FEA                     	;# 
  1928  0FEB                     	;# 
  1929  0FED                     	;# 
  1930  0FEE                     	;# 
  1931  0FEF                     	;# 
  1932  0000                     	;# 
  1933  0001                     	;# 
  1934  0002                     	;# 
  1935  0003                     	;# 
  1936  0004                     	;# 
  1937  0005                     	;# 
  1938  0006                     	;# 
  1939  0007                     	;# 
  1940  0008                     	;# 
  1941  0009                     	;# 
  1942  000A                     	;# 
  1943  000B                     	;# 
  1944  000C                     	;# 
  1945  000D                     	;# 
  1946  000E                     	;# 
  1947  000F                     	;# 
  1948  0010                     	;# 
  1949  0011                     	;# 
  1950  0012                     	;# 
  1951  0013                     	;# 
  1952  0015                     	;# 
  1953  0016                     	;# 
  1954  0016                     	;# 
  1955  0017                     	;# 
  1956  0018                     	;# 
  1957  0019                     	;# 
  1958  001A                     	;# 
  1959  001B                     	;# 
  1960  001C                     	;# 
  1961  008C                     	;# 
  1962  008D                     	;# 
  1963  008E                     	;# 
  1964  008F                     	;# 
  1965  0090                     	;# 
  1966  0091                     	;# 
  1967  0092                     	;# 
  1968  0093                     	;# 
  1969  0095                     	;# 
  1970  0096                     	;# 
  1971  0097                     	;# 
  1972  0098                     	;# 
  1973  0099                     	;# 
  1974  009A                     	;# 
  1975  009B                     	;# 
  1976  009B                     	;# 
  1977  009C                     	;# 
  1978  009D                     	;# 
  1979  009E                     	;# 
  1980  009F                     	;# 
  1981  010C                     	;# 
  1982  010D                     	;# 
  1983  010E                     	;# 
  1984  010F                     	;# 
  1985  0110                     	;# 
  1986  0111                     	;# 
  1987  0112                     	;# 
  1988  0113                     	;# 
  1989  0114                     	;# 
  1990  0115                     	;# 
  1991  0116                     	;# 
  1992  0117                     	;# 
  1993  0118                     	;# 
  1994  0119                     	;# 
  1995  011A                     	;# 
  1996  011B                     	;# 
  1997  011B                     	;# 
  1998  011C                     	;# 
  1999  018C                     	;# 
  2000  018D                     	;# 
  2001  018E                     	;# 
  2002  018F                     	;# 
  2003  0190                     	;# 
  2004  0191                     	;# 
  2005  0191                     	;# 
  2006  0192                     	;# 
  2007  0193                     	;# 
  2008  0193                     	;# 
  2009  0194                     	;# 
  2010  0195                     	;# 
  2011  0196                     	;# 
  2012  0197                     	;# 
  2013  0199                     	;# 
  2014  0199                     	;# 
  2015  0199                     	;# 
  2016  019A                     	;# 
  2017  019A                     	;# 
  2018  019A                     	;# 
  2019  019B                     	;# 
  2020  019B                     	;# 
  2021  019B                     	;# 
  2022  019B                     	;# 
  2023  019B                     	;# 
  2024  019C                     	;# 
  2025  019C                     	;# 
  2026  019C                     	;# 
  2027  019D                     	;# 
  2028  019D                     	;# 
  2029  019D                     	;# 
  2030  019E                     	;# 
  2031  019E                     	;# 
  2032  019E                     	;# 
  2033  019F                     	;# 
  2034  019F                     	;# 
  2035  019F                     	;# 
  2036  019F                     	;# 
  2037  019F                     	;# 
  2038  020C                     	;# 
  2039  020D                     	;# 
  2040  020E                     	;# 
  2041  020F                     	;# 
  2042  0210                     	;# 
  2043  0211                     	;# 
  2044  0211                     	;# 
  2045  0212                     	;# 
  2046  0212                     	;# 
  2047  0213                     	;# 
  2048  0213                     	;# 
  2049  0214                     	;# 
  2050  0214                     	;# 
  2051  0215                     	;# 
  2052  0215                     	;# 
  2053  0215                     	;# 
  2054  0215                     	;# 
  2055  0216                     	;# 
  2056  0216                     	;# 
  2057  0217                     	;# 
  2058  0217                     	;# 
  2059  028C                     	;# 
  2060  028D                     	;# 
  2061  028E                     	;# 
  2062  028F                     	;# 
  2063  0290                     	;# 
  2064  0291                     	;# 
  2065  0291                     	;# 
  2066  0292                     	;# 
  2067  0293                     	;# 
  2068  0293                     	;# 
  2069  0298                     	;# 
  2070  0298                     	;# 
  2071  0299                     	;# 
  2072  029A                     	;# 
  2073  029A                     	;# 
  2074  029E                     	;# 
  2075  030C                     	;# 
  2076  030D                     	;# 
  2077  030E                     	;# 
  2078  030F                     	;# 
  2079  0310                     	;# 
  2080  038C                     	;# 
  2081  038D                     	;# 
  2082  038E                     	;# 
  2083  038F                     	;# 
  2084  0390                     	;# 
  2085  0391                     	;# 
  2086  0392                     	;# 
  2087  0393                     	;# 
  2088  0394                     	;# 
  2089  0395                     	;# 
  2090  0396                     	;# 
  2091  0397                     	;# 
  2092  0398                     	;# 
  2093  0399                     	;# 
  2094  039D                     	;# 
  2095  039E                     	;# 
  2096  039F                     	;# 
  2097  0415                     	;# 
  2098  0416                     	;# 
  2099  0417                     	;# 
  2100  041C                     	;# 
  2101  041D                     	;# 
  2102  041E                     	;# 
  2103  0498                     	;# 
  2104  0498                     	;# 
  2105  0499                     	;# 
  2106  049A                     	;# 
  2107  049B                     	;# 
  2108  049B                     	;# 
  2109  049C                     	;# 
  2110  049D                     	;# 
  2111  049E                     	;# 
  2112  049F                     	;# 
  2113  0511                     	;# 
  2114  0515                     	;# 
  2115  0617                     	;# 
  2116  0618                     	;# 
  2117  0619                     	;# 
  2118  0619                     	;# 
  2119  061A                     	;# 
  2120  061B                     	;# 
  2121  061C                     	;# 
  2122  061C                     	;# 
  2123  0691                     	;# 
  2124  0692                     	;# 
  2125  0693                     	;# 
  2126  0694                     	;# 
  2127  0695                     	;# 
  2128  0696                     	;# 
  2129  0697                     	;# 
  2130  0698                     	;# 
  2131  0699                     	;# 
  2132  069A                     	;# 
  2133  069B                     	;# 
  2134  069C                     	;# 
  2135  069D                     	;# 
  2136  069E                     	;# 
  2137  069F                     	;# 
  2138  0E0F                     	;# 
  2139  0E10                     	;# 
  2140  0E11                     	;# 
  2141  0E12                     	;# 
  2142  0E13                     	;# 
  2143  0E14                     	;# 
  2144  0E15                     	;# 
  2145  0E17                     	;# 
  2146  0E20                     	;# 
  2147  0E21                     	;# 
  2148  0E22                     	;# 
  2149  0E24                     	;# 
  2150  0E25                     	;# 
  2151  0E28                     	;# 
  2152  0E29                     	;# 
  2153  0E2A                     	;# 
  2154  0E2B                     	;# 
  2155  0E90                     	;# 
  2156  0E91                     	;# 
  2157  0E92                     	;# 
  2158  0E93                     	;# 
  2159  0E94                     	;# 
  2160  0E95                     	;# 
  2161  0E96                     	;# 
  2162  0E97                     	;# 
  2163  0E98                     	;# 
  2164  0E99                     	;# 
  2165  0E9A                     	;# 
  2166  0E9B                     	;# 
  2167  0E9C                     	;# 
  2168  0E9D                     	;# 
  2169  0E9E                     	;# 
  2170  0E9F                     	;# 
  2171  0EA0                     	;# 
  2172  0EA1                     	;# 
  2173  0EA2                     	;# 
  2174  0EA3                     	;# 
  2175  0EA4                     	;# 
  2176  0EA5                     	;# 
  2177  0EA6                     	;# 
  2178  0EA7                     	;# 
  2179  0EA8                     	;# 
  2180  0EA9                     	;# 
  2181  0EAA                     	;# 
  2182  0EAB                     	;# 
  2183  0EAC                     	;# 
  2184  0EAD                     	;# 
  2185  0EAE                     	;# 
  2186  0EAF                     	;# 
  2187  0EB0                     	;# 
  2188  0EB1                     	;# 
  2189  0EB2                     	;# 
  2190  0F0F                     	;# 
  2191  0F10                     	;# 
  2192  0F11                     	;# 
  2193  0F12                     	;# 
  2194  0F13                     	;# 
  2195  0F14                     	;# 
  2196  0F15                     	;# 
  2197  0F16                     	;# 
  2198  0F17                     	;# 
  2199  0F18                     	;# 
  2200  0F19                     	;# 
  2201  0F1A                     	;# 
  2202  0F1B                     	;# 
  2203  0F1C                     	;# 
  2204  0F1D                     	;# 
  2205  0F1E                     	;# 
  2206  0F1F                     	;# 
  2207  0F20                     	;# 
  2208  0F21                     	;# 
  2209  0F22                     	;# 
  2210  0F23                     	;# 
  2211  0F24                     	;# 
  2212  0F25                     	;# 
  2213  0F26                     	;# 
  2214  0F27                     	;# 
  2215  0F28                     	;# 
  2216  0F29                     	;# 
  2217  0F2A                     	;# 
  2218  0F2B                     	;# 
  2219  0F2C                     	;# 
  2220  0F2D                     	;# 
  2221  0F2E                     	;# 
  2222  0F2F                     	;# 
  2223  0F30                     	;# 
  2224  0F31                     	;# 
  2225  0F32                     	;# 
  2226  0F33                     	;# 
  2227  0F34                     	;# 
  2228  0F35                     	;# 
  2229  0F36                     	;# 
  2230  0F37                     	;# 
  2231  0FE4                     	;# 
  2232  0FE5                     	;# 
  2233  0FE6                     	;# 
  2234  0FE7                     	;# 
  2235  0FE8                     	;# 
  2236  0FE9                     	;# 
  2237  0FEA                     	;# 
  2238  0FEB                     	;# 
  2239  0FED                     	;# 
  2240  0FEE                     	;# 
  2241  0FEF                     	;# 
  2242  0000                     	;# 
  2243  0001                     	;# 
  2244  0002                     	;# 
  2245  0003                     	;# 
  2246  0004                     	;# 
  2247  0005                     	;# 
  2248  0006                     	;# 
  2249  0007                     	;# 
  2250  0008                     	;# 
  2251  0009                     	;# 
  2252  000A                     	;# 
  2253  000B                     	;# 
  2254  000C                     	;# 
  2255  000D                     	;# 
  2256  000E                     	;# 
  2257  000F                     	;# 
  2258  0010                     	;# 
  2259  0011                     	;# 
  2260  0012                     	;# 
  2261  0013                     	;# 
  2262  0015                     	;# 
  2263  0016                     	;# 
  2264  0016                     	;# 
  2265  0017                     	;# 
  2266  0018                     	;# 
  2267  0019                     	;# 
  2268  001A                     	;# 
  2269  001B                     	;# 
  2270  001C                     	;# 
  2271  008C                     	;# 
  2272  008D                     	;# 
  2273  008E                     	;# 
  2274  008F                     	;# 
  2275  0090                     	;# 
  2276  0091                     	;# 
  2277  0092                     	;# 
  2278  0093                     	;# 
  2279  0095                     	;# 
  2280  0096                     	;# 
  2281  0097                     	;# 
  2282  0098                     	;# 
  2283  0099                     	;# 
  2284  009A                     	;# 
  2285  009B                     	;# 
  2286  009B                     	;# 
  2287  009C                     	;# 
  2288  009D                     	;# 
  2289  009E                     	;# 
  2290  009F                     	;# 
  2291  010C                     	;# 
  2292  010D                     	;# 
  2293  010E                     	;# 
  2294  010F                     	;# 
  2295  0110                     	;# 
  2296  0111                     	;# 
  2297  0112                     	;# 
  2298  0113                     	;# 
  2299  0114                     	;# 
  2300  0115                     	;# 
  2301  0116                     	;# 
  2302  0117                     	;# 
  2303  0118                     	;# 
  2304  0119                     	;# 
  2305  011A                     	;# 
  2306  011B                     	;# 
  2307  011B                     	;# 
  2308  011C                     	;# 
  2309  018C                     	;# 
  2310  018D                     	;# 
  2311  018E                     	;# 
  2312  018F                     	;# 
  2313  0190                     	;# 
  2314  0191                     	;# 
  2315  0191                     	;# 
  2316  0192                     	;# 
  2317  0193                     	;# 
  2318  0193                     	;# 
  2319  0194                     	;# 
  2320  0195                     	;# 
  2321  0196                     	;# 
  2322  0197                     	;# 
  2323  0199                     	;# 
  2324  0199                     	;# 
  2325  0199                     	;# 
  2326  019A                     	;# 
  2327  019A                     	;# 
  2328  019A                     	;# 
  2329  019B                     	;# 
  2330  019B                     	;# 
  2331  019B                     	;# 
  2332  019B                     	;# 
  2333  019B                     	;# 
  2334  019C                     	;# 
  2335  019C                     	;# 
  2336  019C                     	;# 
  2337  019D                     	;# 
  2338  019D                     	;# 
  2339  019D                     	;# 
  2340  019E                     	;# 
  2341  019E                     	;# 
  2342  019E                     	;# 
  2343  019F                     	;# 
  2344  019F                     	;# 
  2345  019F                     	;# 
  2346  019F                     	;# 
  2347  019F                     	;# 
  2348  020C                     	;# 
  2349  020D                     	;# 
  2350  020E                     	;# 
  2351  020F                     	;# 
  2352  0210                     	;# 
  2353  0211                     	;# 
  2354  0211                     	;# 
  2355  0212                     	;# 
  2356  0212                     	;# 
  2357  0213                     	;# 
  2358  0213                     	;# 
  2359  0214                     	;# 
  2360  0214                     	;# 
  2361  0215                     	;# 
  2362  0215                     	;# 
  2363  0215                     	;# 
  2364  0215                     	;# 
  2365  0216                     	;# 
  2366  0216                     	;# 
  2367  0217                     	;# 
  2368  0217                     	;# 
  2369  028C                     	;# 
  2370  028D                     	;# 
  2371  028E                     	;# 
  2372  028F                     	;# 
  2373  0290                     	;# 
  2374  0291                     	;# 
  2375  0291                     	;# 
  2376  0292                     	;# 
  2377  0293                     	;# 
  2378  0293                     	;# 
  2379  0298                     	;# 
  2380  0298                     	;# 
  2381  0299                     	;# 
  2382  029A                     	;# 
  2383  029A                     	;# 
  2384  029E                     	;# 
  2385  030C                     	;# 
  2386  030D                     	;# 
  2387  030E                     	;# 
  2388  030F                     	;# 
  2389  0310                     	;# 
  2390  038C                     	;# 
  2391  038D                     	;# 
  2392  038E                     	;# 
  2393  038F                     	;# 
  2394  0390                     	;# 
  2395  0391                     	;# 
  2396  0392                     	;# 
  2397  0393                     	;# 
  2398  0394                     	;# 
  2399  0395                     	;# 
  2400  0396                     	;# 
  2401  0397                     	;# 
  2402  0398                     	;# 
  2403  0399                     	;# 
  2404  039D                     	;# 
  2405  039E                     	;# 
  2406  039F                     	;# 
  2407  0415                     	;# 
  2408  0416                     	;# 
  2409  0417                     	;# 
  2410  041C                     	;# 
  2411  041D                     	;# 
  2412  041E                     	;# 
  2413  0498                     	;# 
  2414  0498                     	;# 
  2415  0499                     	;# 
  2416  049A                     	;# 
  2417  049B                     	;# 
  2418  049B                     	;# 
  2419  049C                     	;# 
  2420  049D                     	;# 
  2421  049E                     	;# 
  2422  049F                     	;# 
  2423  0511                     	;# 
  2424  0515                     	;# 
  2425  0617                     	;# 
  2426  0618                     	;# 
  2427  0619                     	;# 
  2428  0619                     	;# 
  2429  061A                     	;# 
  2430  061B                     	;# 
  2431  061C                     	;# 
  2432  061C                     	;# 
  2433  0691                     	;# 
  2434  0692                     	;# 
  2435  0693                     	;# 
  2436  0694                     	;# 
  2437  0695                     	;# 
  2438  0696                     	;# 
  2439  0697                     	;# 
  2440  0698                     	;# 
  2441  0699                     	;# 
  2442  069A                     	;# 
  2443  069B                     	;# 
  2444  069C                     	;# 
  2445  069D                     	;# 
  2446  069E                     	;# 
  2447  069F                     	;# 
  2448  0E0F                     	;# 
  2449  0E10                     	;# 
  2450  0E11                     	;# 
  2451  0E12                     	;# 
  2452  0E13                     	;# 
  2453  0E14                     	;# 
  2454  0E15                     	;# 
  2455  0E17                     	;# 
  2456  0E20                     	;# 
  2457  0E21                     	;# 
  2458  0E22                     	;# 
  2459  0E24                     	;# 
  2460  0E25                     	;# 
  2461  0E28                     	;# 
  2462  0E29                     	;# 
  2463  0E2A                     	;# 
  2464  0E2B                     	;# 
  2465  0E90                     	;# 
  2466  0E91                     	;# 
  2467  0E92                     	;# 
  2468  0E93                     	;# 
  2469  0E94                     	;# 
  2470  0E95                     	;# 
  2471  0E96                     	;# 
  2472  0E97                     	;# 
  2473  0E98                     	;# 
  2474  0E99                     	;# 
  2475  0E9A                     	;# 
  2476  0E9B                     	;# 
  2477  0E9C                     	;# 
  2478  0E9D                     	;# 
  2479  0E9E                     	;# 
  2480  0E9F                     	;# 
  2481  0EA0                     	;# 
  2482  0EA1                     	;# 
  2483  0EA2                     	;# 
  2484  0EA3                     	;# 
  2485  0EA4                     	;# 
  2486  0EA5                     	;# 
  2487  0EA6                     	;# 
  2488  0EA7                     	;# 
  2489  0EA8                     	;# 
  2490  0EA9                     	;# 
  2491  0EAA                     	;# 
  2492  0EAB                     	;# 
  2493  0EAC                     	;# 
  2494  0EAD                     	;# 
  2495  0EAE                     	;# 
  2496  0EAF                     	;# 
  2497  0EB0                     	;# 
  2498  0EB1                     	;# 
  2499  0EB2                     	;# 
  2500  0F0F                     	;# 
  2501  0F10                     	;# 
  2502  0F11                     	;# 
  2503  0F12                     	;# 
  2504  0F13                     	;# 
  2505  0F14                     	;# 
  2506  0F15                     	;# 
  2507  0F16                     	;# 
  2508  0F17                     	;# 
  2509  0F18                     	;# 
  2510  0F19                     	;# 
  2511  0F1A                     	;# 
  2512  0F1B                     	;# 
  2513  0F1C                     	;# 
  2514  0F1D                     	;# 
  2515  0F1E                     	;# 
  2516  0F1F                     	;# 
  2517  0F20                     	;# 
  2518  0F21                     	;# 
  2519  0F22                     	;# 
  2520  0F23                     	;# 
  2521  0F24                     	;# 
  2522  0F25                     	;# 
  2523  0F26                     	;# 
  2524  0F27                     	;# 
  2525  0F28                     	;# 
  2526  0F29                     	;# 
  2527  0F2A                     	;# 
  2528  0F2B                     	;# 
  2529  0F2C                     	;# 
  2530  0F2D                     	;# 
  2531  0F2E                     	;# 
  2532  0F2F                     	;# 
  2533  0F30                     	;# 
  2534  0F31                     	;# 
  2535  0F32                     	;# 
  2536  0F33                     	;# 
  2537  0F34                     	;# 
  2538  0F35                     	;# 
  2539  0F36                     	;# 
  2540  0F37                     	;# 
  2541  0FE4                     	;# 
  2542  0FE5                     	;# 
  2543  0FE6                     	;# 
  2544  0FE7                     	;# 
  2545  0FE8                     	;# 
  2546  0FE9                     	;# 
  2547  0FEA                     	;# 
  2548  0FEB                     	;# 
  2549  0FED                     	;# 
  2550  0FEE                     	;# 
  2551  0FEF                     	;# 
  2552  0000                     	;# 
  2553  0001                     	;# 
  2554  0002                     	;# 
  2555  0003                     	;# 
  2556  0004                     	;# 
  2557  0005                     	;# 
  2558  0006                     	;# 
  2559  0007                     	;# 
  2560  0008                     	;# 
  2561  0009                     	;# 
  2562  000A                     	;# 
  2563  000B                     	;# 
  2564  000C                     	;# 
  2565  000D                     	;# 
  2566  000E                     	;# 
  2567  000F                     	;# 
  2568  0010                     	;# 
  2569  0011                     	;# 
  2570  0012                     	;# 
  2571  0013                     	;# 
  2572  0015                     	;# 
  2573  0016                     	;# 
  2574  0016                     	;# 
  2575  0017                     	;# 
  2576  0018                     	;# 
  2577  0019                     	;# 
  2578  001A                     	;# 
  2579  001B                     	;# 
  2580  001C                     	;# 
  2581  008C                     	;# 
  2582  008D                     	;# 
  2583  008E                     	;# 
  2584  008F                     	;# 
  2585  0090                     	;# 
  2586  0091                     	;# 
  2587  0092                     	;# 
  2588  0093                     	;# 
  2589  0095                     	;# 
  2590  0096                     	;# 
  2591  0097                     	;# 
  2592  0098                     	;# 
  2593  0099                     	;# 
  2594  009A                     	;# 
  2595  009B                     	;# 
  2596  009B                     	;# 
  2597  009C                     	;# 
  2598  009D                     	;# 
  2599  009E                     	;# 
  2600  009F                     	;# 
  2601  010C                     	;# 
  2602  010D                     	;# 
  2603  010E                     	;# 
  2604  010F                     	;# 
  2605  0110                     	;# 
  2606  0111                     	;# 
  2607  0112                     	;# 
  2608  0113                     	;# 
  2609  0114                     	;# 
  2610  0115                     	;# 
  2611  0116                     	;# 
  2612  0117                     	;# 
  2613  0118                     	;# 
  2614  0119                     	;# 
  2615  011A                     	;# 
  2616  011B                     	;# 
  2617  011B                     	;# 
  2618  011C                     	;# 
  2619  018C                     	;# 
  2620  018D                     	;# 
  2621  018E                     	;# 
  2622  018F                     	;# 
  2623  0190                     	;# 
  2624  0191                     	;# 
  2625  0191                     	;# 
  2626  0192                     	;# 
  2627  0193                     	;# 
  2628  0193                     	;# 
  2629  0194                     	;# 
  2630  0195                     	;# 
  2631  0196                     	;# 
  2632  0197                     	;# 
  2633  0199                     	;# 
  2634  0199                     	;# 
  2635  0199                     	;# 
  2636  019A                     	;# 
  2637  019A                     	;# 
  2638  019A                     	;# 
  2639  019B                     	;# 
  2640  019B                     	;# 
  2641  019B                     	;# 
  2642  019B                     	;# 
  2643  019B                     	;# 
  2644  019C                     	;# 
  2645  019C                     	;# 
  2646  019C                     	;# 
  2647  019D                     	;# 
  2648  019D                     	;# 
  2649  019D                     	;# 
  2650  019E                     	;# 
  2651  019E                     	;# 
  2652  019E                     	;# 
  2653  019F                     	;# 
  2654  019F                     	;# 
  2655  019F                     	;# 
  2656  019F                     	;# 
  2657  019F                     	;# 
  2658  020C                     	;# 
  2659  020D                     	;# 
  2660  020E                     	;# 
  2661  020F                     	;# 
  2662  0210                     	;# 
  2663  0211                     	;# 
  2664  0211                     	;# 
  2665  0212                     	;# 
  2666  0212                     	;# 
  2667  0213                     	;# 
  2668  0213                     	;# 
  2669  0214                     	;# 
  2670  0214                     	;# 
  2671  0215                     	;# 
  2672  0215                     	;# 
  2673  0215                     	;# 
  2674  0215                     	;# 
  2675  0216                     	;# 
  2676  0216                     	;# 
  2677  0217                     	;# 
  2678  0217                     	;# 
  2679  028C                     	;# 
  2680  028D                     	;# 
  2681  028E                     	;# 
  2682  028F                     	;# 
  2683  0290                     	;# 
  2684  0291                     	;# 
  2685  0291                     	;# 
  2686  0292                     	;# 
  2687  0293                     	;# 
  2688  0293                     	;# 
  2689  0298                     	;# 
  2690  0298                     	;# 
  2691  0299                     	;# 
  2692  029A                     	;# 
  2693  029A                     	;# 
  2694  029E                     	;# 
  2695  030C                     	;# 
  2696  030D                     	;# 
  2697  030E                     	;# 
  2698  030F                     	;# 
  2699  0310                     	;# 
  2700  038C                     	;# 
  2701  038D                     	;# 
  2702  038E                     	;# 
  2703  038F                     	;# 
  2704  0390                     	;# 
  2705  0391                     	;# 
  2706  0392                     	;# 
  2707  0393                     	;# 
  2708  0394                     	;# 
  2709  0395                     	;# 
  2710  0396                     	;# 
  2711  0397                     	;# 
  2712  0398                     	;# 
  2713  0399                     	;# 
  2714  039D                     	;# 
  2715  039E                     	;# 
  2716  039F                     	;# 
  2717  0415                     	;# 
  2718  0416                     	;# 
  2719  0417                     	;# 
  2720  041C                     	;# 
  2721  041D                     	;# 
  2722  041E                     	;# 
  2723  0498                     	;# 
  2724  0498                     	;# 
  2725  0499                     	;# 
  2726  049A                     	;# 
  2727  049B                     	;# 
  2728  049B                     	;# 
  2729  049C                     	;# 
  2730  049D                     	;# 
  2731  049E                     	;# 
  2732  049F                     	;# 
  2733  0511                     	;# 
  2734  0515                     	;# 
  2735  0617                     	;# 
  2736  0618                     	;# 
  2737  0619                     	;# 
  2738  0619                     	;# 
  2739  061A                     	;# 
  2740  061B                     	;# 
  2741  061C                     	;# 
  2742  061C                     	;# 
  2743  0691                     	;# 
  2744  0692                     	;# 
  2745  0693                     	;# 
  2746  0694                     	;# 
  2747  0695                     	;# 
  2748  0696                     	;# 
  2749  0697                     	;# 
  2750  0698                     	;# 
  2751  0699                     	;# 
  2752  069A                     	;# 
  2753  069B                     	;# 
  2754  069C                     	;# 
  2755  069D                     	;# 
  2756  069E                     	;# 
  2757  069F                     	;# 
  2758  0E0F                     	;# 
  2759  0E10                     	;# 
  2760  0E11                     	;# 
  2761  0E12                     	;# 
  2762  0E13                     	;# 
  2763  0E14                     	;# 
  2764  0E15                     	;# 
  2765  0E17                     	;# 
  2766  0E20                     	;# 
  2767  0E21                     	;# 
  2768  0E22                     	;# 
  2769  0E24                     	;# 
  2770  0E25                     	;# 
  2771  0E28                     	;# 
  2772  0E29                     	;# 
  2773  0E2A                     	;# 
  2774  0E2B                     	;# 
  2775  0E90                     	;# 
  2776  0E91                     	;# 
  2777  0E92                     	;# 
  2778  0E93                     	;# 
  2779  0E94                     	;# 
  2780  0E95                     	;# 
  2781  0E96                     	;# 
  2782  0E97                     	;# 
  2783  0E98                     	;# 
  2784  0E99                     	;# 
  2785  0E9A                     	;# 
  2786  0E9B                     	;# 
  2787  0E9C                     	;# 
  2788  0E9D                     	;# 
  2789  0E9E                     	;# 
  2790  0E9F                     	;# 
  2791  0EA0                     	;# 
  2792  0EA1                     	;# 
  2793  0EA2                     	;# 
  2794  0EA3                     	;# 
  2795  0EA4                     	;# 
  2796  0EA5                     	;# 
  2797  0EA6                     	;# 
  2798  0EA7                     	;# 
  2799  0EA8                     	;# 
  2800  0EA9                     	;# 
  2801  0EAA                     	;# 
  2802  0EAB                     	;# 
  2803  0EAC                     	;# 
  2804  0EAD                     	;# 
  2805  0EAE                     	;# 
  2806  0EAF                     	;# 
  2807  0EB0                     	;# 
  2808  0EB1                     	;# 
  2809  0EB2                     	;# 
  2810  0F0F                     	;# 
  2811  0F10                     	;# 
  2812  0F11                     	;# 
  2813  0F12                     	;# 
  2814  0F13                     	;# 
  2815  0F14                     	;# 
  2816  0F15                     	;# 
  2817  0F16                     	;# 
  2818  0F17                     	;# 
  2819  0F18                     	;# 
  2820  0F19                     	;# 
  2821  0F1A                     	;# 
  2822  0F1B                     	;# 
  2823  0F1C                     	;# 
  2824  0F1D                     	;# 
  2825  0F1E                     	;# 
  2826  0F1F                     	;# 
  2827  0F20                     	;# 
  2828  0F21                     	;# 
  2829  0F22                     	;# 
  2830  0F23                     	;# 
  2831  0F24                     	;# 
  2832  0F25                     	;# 
  2833  0F26                     	;# 
  2834  0F27                     	;# 
  2835  0F28                     	;# 
  2836  0F29                     	;# 
  2837  0F2A                     	;# 
  2838  0F2B                     	;# 
  2839  0F2C                     	;# 
  2840  0F2D                     	;# 
  2841  0F2E                     	;# 
  2842  0F2F                     	;# 
  2843  0F30                     	;# 
  2844  0F31                     	;# 
  2845  0F32                     	;# 
  2846  0F33                     	;# 
  2847  0F34                     	;# 
  2848  0F35                     	;# 
  2849  0F36                     	;# 
  2850  0F37                     	;# 
  2851  0FE4                     	;# 
  2852  0FE5                     	;# 
  2853  0FE6                     	;# 
  2854  0FE7                     	;# 
  2855  0FE8                     	;# 
  2856  0FE9                     	;# 
  2857  0FEA                     	;# 
  2858  0FEB                     	;# 
  2859  0FED                     	;# 
  2860  0FEE                     	;# 
  2861  0FEF                     	;# 
  2862  0000                     	;# 
  2863  0001                     	;# 
  2864  0002                     	;# 
  2865  0003                     	;# 
  2866  0004                     	;# 
  2867  0005                     	;# 
  2868  0006                     	;# 
  2869  0007                     	;# 
  2870  0008                     	;# 
  2871  0009                     	;# 
  2872  000A                     	;# 
  2873  000B                     	;# 
  2874  000C                     	;# 
  2875  000D                     	;# 
  2876  000E                     	;# 
  2877  000F                     	;# 
  2878  0010                     	;# 
  2879  0011                     	;# 
  2880  0012                     	;# 
  2881  0013                     	;# 
  2882  0015                     	;# 
  2883  0016                     	;# 
  2884  0016                     	;# 
  2885  0017                     	;# 
  2886  0018                     	;# 
  2887  0019                     	;# 
  2888  001A                     	;# 
  2889  001B                     	;# 
  2890  001C                     	;# 
  2891  008C                     	;# 
  2892  008D                     	;# 
  2893  008E                     	;# 
  2894  008F                     	;# 
  2895  0090                     	;# 
  2896  0091                     	;# 
  2897  0092                     	;# 
  2898  0093                     	;# 
  2899  0095                     	;# 
  2900  0096                     	;# 
  2901  0097                     	;# 
  2902  0098                     	;# 
  2903  0099                     	;# 
  2904  009A                     	;# 
  2905  009B                     	;# 
  2906  009B                     	;# 
  2907  009C                     	;# 
  2908  009D                     	;# 
  2909  009E                     	;# 
  2910  009F                     	;# 
  2911  010C                     	;# 
  2912  010D                     	;# 
  2913  010E                     	;# 
  2914  010F                     	;# 
  2915  0110                     	;# 
  2916  0111                     	;# 
  2917  0112                     	;# 
  2918  0113                     	;# 
  2919  0114                     	;# 
  2920  0115                     	;# 
  2921  0116                     	;# 
  2922  0117                     	;# 
  2923  0118                     	;# 
  2924  0119                     	;# 
  2925  011A                     	;# 
  2926  011B                     	;# 
  2927  011B                     	;# 
  2928  011C                     	;# 
  2929  018C                     	;# 
  2930  018D                     	;# 
  2931  018E                     	;# 
  2932  018F                     	;# 
  2933  0190                     	;# 
  2934  0191                     	;# 
  2935  0191                     	;# 
  2936  0192                     	;# 
  2937  0193                     	;# 
  2938  0193                     	;# 
  2939  0194                     	;# 
  2940  0195                     	;# 
  2941  0196                     	;# 
  2942  0197                     	;# 
  2943  0199                     	;# 
  2944  0199                     	;# 
  2945  0199                     	;# 
  2946  019A                     	;# 
  2947  019A                     	;# 
  2948  019A                     	;# 
  2949  019B                     	;# 
  2950  019B                     	;# 
  2951  019B                     	;# 
  2952  019B                     	;# 
  2953  019B                     	;# 
  2954  019C                     	;# 
  2955  019C                     	;# 
  2956  019C                     	;# 
  2957  019D                     	;# 
  2958  019D                     	;# 
  2959  019D                     	;# 
  2960  019E                     	;# 
  2961  019E                     	;# 
  2962  019E                     	;# 
  2963  019F                     	;# 
  2964  019F                     	;# 
  2965  019F                     	;# 
  2966  019F                     	;# 
  2967  019F                     	;# 
  2968  020C                     	;# 
  2969  020D                     	;# 
  2970  020E                     	;# 
  2971  020F                     	;# 
  2972  0210                     	;# 
  2973  0211                     	;# 
  2974  0211                     	;# 
  2975  0212                     	;# 
  2976  0212                     	;# 
  2977  0213                     	;# 
  2978  0213                     	;# 
  2979  0214                     	;# 
  2980  0214                     	;# 
  2981  0215                     	;# 
  2982  0215                     	;# 
  2983  0215                     	;# 
  2984  0215                     	;# 
  2985  0216                     	;# 
  2986  0216                     	;# 
  2987  0217                     	;# 
  2988  0217                     	;# 
  2989  028C                     	;# 
  2990  028D                     	;# 
  2991  028E                     	;# 
  2992  028F                     	;# 
  2993  0290                     	;# 
  2994  0291                     	;# 
  2995  0291                     	;# 
  2996  0292                     	;# 
  2997  0293                     	;# 
  2998  0293                     	;# 
  2999  0298                     	;# 
  3000  0298                     	;# 
  3001  0299                     	;# 
  3002  029A                     	;# 
  3003  029A                     	;# 
  3004  029E                     	;# 
  3005  030C                     	;# 
  3006  030D                     	;# 
  3007  030E                     	;# 
  3008  030F                     	;# 
  3009  0310                     	;# 
  3010  038C                     	;# 
  3011  038D                     	;# 
  3012  038E                     	;# 
  3013  038F                     	;# 
  3014  0390                     	;# 
  3015  0391                     	;# 
  3016  0392                     	;# 
  3017  0393                     	;# 
  3018  0394                     	;# 
  3019  0395                     	;# 
  3020  0396                     	;# 
  3021  0397                     	;# 
  3022  0398                     	;# 
  3023  0399                     	;# 
  3024  039D                     	;# 
  3025  039E                     	;# 
  3026  039F                     	;# 
  3027  0415                     	;# 
  3028  0416                     	;# 
  3029  0417                     	;# 
  3030  041C                     	;# 
  3031  041D                     	;# 
  3032  041E                     	;# 
  3033  0498                     	;# 
  3034  0498                     	;# 
  3035  0499                     	;# 
  3036  049A                     	;# 
  3037  049B                     	;# 
  3038  049B                     	;# 
  3039  049C                     	;# 
  3040  049D                     	;# 
  3041  049E                     	;# 
  3042  049F                     	;# 
  3043  0511                     	;# 
  3044  0515                     	;# 
  3045  0617                     	;# 
  3046  0618                     	;# 
  3047  0619                     	;# 
  3048  0619                     	;# 
  3049  061A                     	;# 
  3050  061B                     	;# 
  3051  061C                     	;# 
  3052  061C                     	;# 
  3053  0691                     	;# 
  3054  0692                     	;# 
  3055  0693                     	;# 
  3056  0694                     	;# 
  3057  0695                     	;# 
  3058  0696                     	;# 
  3059  0697                     	;# 
  3060  0698                     	;# 
  3061  0699                     	;# 
  3062  069A                     	;# 
  3063  069B                     	;# 
  3064  069C                     	;# 
  3065  069D                     	;# 
  3066  069E                     	;# 
  3067  069F                     	;# 
  3068  0E0F                     	;# 
  3069  0E10                     	;# 
  3070  0E11                     	;# 
  3071  0E12                     	;# 
  3072  0E13                     	;# 
  3073  0E14                     	;# 
  3074  0E15                     	;# 
  3075  0E17                     	;# 
  3076  0E20                     	;# 
  3077  0E21                     	;# 
  3078  0E22                     	;# 
  3079  0E24                     	;# 
  3080  0E25                     	;# 
  3081  0E28                     	;# 
  3082  0E29                     	;# 
  3083  0E2A                     	;# 
  3084  0E2B                     	;# 
  3085  0E90                     	;# 
  3086  0E91                     	;# 
  3087  0E92                     	;# 
  3088  0E93                     	;# 
  3089  0E94                     	;# 
  3090  0E95                     	;# 
  3091  0E96                     	;# 
  3092  0E97                     	;# 
  3093  0E98                     	;# 
  3094  0E99                     	;# 
  3095  0E9A                     	;# 
  3096  0E9B                     	;# 
  3097  0E9C                     	;# 
  3098  0E9D                     	;# 
  3099  0E9E                     	;# 
  3100  0E9F                     	;# 
  3101  0EA0                     	;# 
  3102  0EA1                     	;# 
  3103  0EA2                     	;# 
  3104  0EA3                     	;# 
  3105  0EA4                     	;# 
  3106  0EA5                     	;# 
  3107  0EA6                     	;# 
  3108  0EA7                     	;# 
  3109  0EA8                     	;# 
  3110  0EA9                     	;# 
  3111  0EAA                     	;# 
  3112  0EAB                     	;# 
  3113  0EAC                     	;# 
  3114  0EAD                     	;# 
  3115  0EAE                     	;# 
  3116  0EAF                     	;# 
  3117  0EB0                     	;# 
  3118  0EB1                     	;# 
  3119  0EB2                     	;# 
  3120  0F0F                     	;# 
  3121  0F10                     	;# 
  3122  0F11                     	;# 
  3123  0F12                     	;# 
  3124  0F13                     	;# 
  3125  0F14                     	;# 
  3126  0F15                     	;# 
  3127  0F16                     	;# 
  3128  0F17                     	;# 
  3129  0F18                     	;# 
  3130  0F19                     	;# 
  3131  0F1A                     	;# 
  3132  0F1B                     	;# 
  3133  0F1C                     	;# 
  3134  0F1D                     	;# 
  3135  0F1E                     	;# 
  3136  0F1F                     	;# 
  3137  0F20                     	;# 
  3138  0F21                     	;# 
  3139  0F22                     	;# 
  3140  0F23                     	;# 
  3141  0F24                     	;# 
  3142  0F25                     	;# 
  3143  0F26                     	;# 
  3144  0F27                     	;# 
  3145  0F28                     	;# 
  3146  0F29                     	;# 
  3147  0F2A                     	;# 
  3148  0F2B                     	;# 
  3149  0F2C                     	;# 
  3150  0F2D                     	;# 
  3151  0F2E                     	;# 
  3152  0F2F                     	;# 
  3153  0F30                     	;# 
  3154  0F31                     	;# 
  3155  0F32                     	;# 
  3156  0F33                     	;# 
  3157  0F34                     	;# 
  3158  0F35                     	;# 
  3159  0F36                     	;# 
  3160  0F37                     	;# 
  3161  0FE4                     	;# 
  3162  0FE5                     	;# 
  3163  0FE6                     	;# 
  3164  0FE7                     	;# 
  3165  0FE8                     	;# 
  3166  0FE9                     	;# 
  3167  0FEA                     	;# 
  3168  0FEB                     	;# 
  3169  0FED                     	;# 
  3170  0FEE                     	;# 
  3171  0FEF                     	;# 
  3172  0000                     	;# 
  3173  0001                     	;# 
  3174  0002                     	;# 
  3175  0003                     	;# 
  3176  0004                     	;# 
  3177  0005                     	;# 
  3178  0006                     	;# 
  3179  0007                     	;# 
  3180  0008                     	;# 
  3181  0009                     	;# 
  3182  000A                     	;# 
  3183  000B                     	;# 
  3184  000C                     	;# 
  3185  000D                     	;# 
  3186  000E                     	;# 
  3187  000F                     	;# 
  3188  0010                     	;# 
  3189  0011                     	;# 
  3190  0012                     	;# 
  3191  0013                     	;# 
  3192  0015                     	;# 
  3193  0016                     	;# 
  3194  0016                     	;# 
  3195  0017                     	;# 
  3196  0018                     	;# 
  3197  0019                     	;# 
  3198  001A                     	;# 
  3199  001B                     	;# 
  3200  001C                     	;# 
  3201  008C                     	;# 
  3202  008D                     	;# 
  3203  008E                     	;# 
  3204  008F                     	;# 
  3205  0090                     	;# 
  3206  0091                     	;# 
  3207  0092                     	;# 
  3208  0093                     	;# 
  3209  0095                     	;# 
  3210  0096                     	;# 
  3211  0097                     	;# 
  3212  0098                     	;# 
  3213  0099                     	;# 
  3214  009A                     	;# 
  3215  009B                     	;# 
  3216  009B                     	;# 
  3217  009C                     	;# 
  3218  009D                     	;# 
  3219  009E                     	;# 
  3220  009F                     	;# 
  3221  010C                     	;# 
  3222  010D                     	;# 
  3223  010E                     	;# 
  3224  010F                     	;# 
  3225  0110                     	;# 
  3226  0111                     	;# 
  3227  0112                     	;# 
  3228  0113                     	;# 
  3229  0114                     	;# 
  3230  0115                     	;# 
  3231  0116                     	;# 
  3232  0117                     	;# 
  3233  0118                     	;# 
  3234  0119                     	;# 
  3235  011A                     	;# 
  3236  011B                     	;# 
  3237  011B                     	;# 
  3238  011C                     	;# 
  3239  018C                     	;# 
  3240  018D                     	;# 
  3241  018E                     	;# 
  3242  018F                     	;# 
  3243  0190                     	;# 
  3244  0191                     	;# 
  3245  0191                     	;# 
  3246  0192                     	;# 
  3247  0193                     	;# 
  3248  0193                     	;# 
  3249  0194                     	;# 
  3250  0195                     	;# 
  3251  0196                     	;# 
  3252  0197                     	;# 
  3253  0199                     	;# 
  3254  0199                     	;# 
  3255  0199                     	;# 
  3256  019A                     	;# 
  3257  019A                     	;# 
  3258  019A                     	;# 
  3259  019B                     	;# 
  3260  019B                     	;# 
  3261  019B                     	;# 
  3262  019B                     	;# 
  3263  019B                     	;# 
  3264  019C                     	;# 
  3265  019C                     	;# 
  3266  019C                     	;# 
  3267  019D                     	;# 
  3268  019D                     	;# 
  3269  019D                     	;# 
  3270  019E                     	;# 
  3271  019E                     	;# 
  3272  019E                     	;# 
  3273  019F                     	;# 
  3274  019F                     	;# 
  3275  019F                     	;# 
  3276  019F                     	;# 
  3277  019F                     	;# 
  3278  020C                     	;# 
  3279  020D                     	;# 
  3280  020E                     	;# 
  3281  020F                     	;# 
  3282  0210                     	;# 
  3283  0211                     	;# 
  3284  0211                     	;# 
  3285  0212                     	;# 
  3286  0212                     	;# 
  3287  0213                     	;# 
  3288  0213                     	;# 
  3289  0214                     	;# 
  3290  0214                     	;# 
  3291  0215                     	;# 
  3292  0215                     	;# 
  3293  0215                     	;# 
  3294  0215                     	;# 
  3295  0216                     	;# 
  3296  0216                     	;# 
  3297  0217                     	;# 
  3298  0217                     	;# 
  3299  028C                     	;# 
  3300  028D                     	;# 
  3301  028E                     	;# 
  3302  028F                     	;# 
  3303  0290                     	;# 
  3304  0291                     	;# 
  3305  0291                     	;# 
  3306  0292                     	;# 
  3307  0293                     	;# 
  3308  0293                     	;# 
  3309  0298                     	;# 
  3310  0298                     	;# 
  3311  0299                     	;# 
  3312  029A                     	;# 
  3313  029A                     	;# 
  3314  029E                     	;# 
  3315  030C                     	;# 
  3316  030D                     	;# 
  3317  030E                     	;# 
  3318  030F                     	;# 
  3319  0310                     	;# 
  3320  038C                     	;# 
  3321  038D                     	;# 
  3322  038E                     	;# 
  3323  038F                     	;# 
  3324  0390                     	;# 
  3325  0391                     	;# 
  3326  0392                     	;# 
  3327  0393                     	;# 
  3328  0394                     	;# 
  3329  0395                     	;# 
  3330  0396                     	;# 
  3331  0397                     	;# 
  3332  0398                     	;# 
  3333  0399                     	;# 
  3334  039D                     	;# 
  3335  039E                     	;# 
  3336  039F                     	;# 
  3337  0415                     	;# 
  3338  0416                     	;# 
  3339  0417                     	;# 
  3340  041C                     	;# 
  3341  041D                     	;# 
  3342  041E                     	;# 
  3343  0498                     	;# 
  3344  0498                     	;# 
  3345  0499                     	;# 
  3346  049A                     	;# 
  3347  049B                     	;# 
  3348  049B                     	;# 
  3349  049C                     	;# 
  3350  049D                     	;# 
  3351  049E                     	;# 
  3352  049F                     	;# 
  3353  0511                     	;# 
  3354  0515                     	;# 
  3355  0617                     	;# 
  3356  0618                     	;# 
  3357  0619                     	;# 
  3358  0619                     	;# 
  3359  061A                     	;# 
  3360  061B                     	;# 
  3361  061C                     	;# 
  3362  061C                     	;# 
  3363  0691                     	;# 
  3364  0692                     	;# 
  3365  0693                     	;# 
  3366  0694                     	;# 
  3367  0695                     	;# 
  3368  0696                     	;# 
  3369  0697                     	;# 
  3370  0698                     	;# 
  3371  0699                     	;# 
  3372  069A                     	;# 
  3373  069B                     	;# 
  3374  069C                     	;# 
  3375  069D                     	;# 
  3376  069E                     	;# 
  3377  069F                     	;# 
  3378  0E0F                     	;# 
  3379  0E10                     	;# 
  3380  0E11                     	;# 
  3381  0E12                     	;# 
  3382  0E13                     	;# 
  3383  0E14                     	;# 
  3384  0E15                     	;# 
  3385  0E17                     	;# 
  3386  0E20                     	;# 
  3387  0E21                     	;# 
  3388  0E22                     	;# 
  3389  0E24                     	;# 
  3390  0E25                     	;# 
  3391  0E28                     	;# 
  3392  0E29                     	;# 
  3393  0E2A                     	;# 
  3394  0E2B                     	;# 
  3395  0E90                     	;# 
  3396  0E91                     	;# 
  3397  0E92                     	;# 
  3398  0E93                     	;# 
  3399  0E94                     	;# 
  3400  0E95                     	;# 
  3401  0E96                     	;# 
  3402  0E97                     	;# 
  3403  0E98                     	;# 
  3404  0E99                     	;# 
  3405  0E9A                     	;# 
  3406  0E9B                     	;# 
  3407  0E9C                     	;# 
  3408  0E9D                     	;# 
  3409  0E9E                     	;# 
  3410  0E9F                     	;# 
  3411  0EA0                     	;# 
  3412  0EA1                     	;# 
  3413  0EA2                     	;# 
  3414  0EA3                     	;# 
  3415  0EA4                     	;# 
  3416  0EA5                     	;# 
  3417  0EA6                     	;# 
  3418  0EA7                     	;# 
  3419  0EA8                     	;# 
  3420  0EA9                     	;# 
  3421  0EAA                     	;# 
  3422  0EAB                     	;# 
  3423  0EAC                     	;# 
  3424  0EAD                     	;# 
  3425  0EAE                     	;# 
  3426  0EAF                     	;# 
  3427  0EB0                     	;# 
  3428  0EB1                     	;# 
  3429  0EB2                     	;# 
  3430  0F0F                     	;# 
  3431  0F10                     	;# 
  3432  0F11                     	;# 
  3433  0F12                     	;# 
  3434  0F13                     	;# 
  3435  0F14                     	;# 
  3436  0F15                     	;# 
  3437  0F16                     	;# 
  3438  0F17                     	;# 
  3439  0F18                     	;# 
  3440  0F19                     	;# 
  3441  0F1A                     	;# 
  3442  0F1B                     	;# 
  3443  0F1C                     	;# 
  3444  0F1D                     	;# 
  3445  0F1E                     	;# 
  3446  0F1F                     	;# 
  3447  0F20                     	;# 
  3448  0F21                     	;# 
  3449  0F22                     	;# 
  3450  0F23                     	;# 
  3451  0F24                     	;# 
  3452  0F25                     	;# 
  3453  0F26                     	;# 
  3454  0F27                     	;# 
  3455  0F28                     	;# 
  3456  0F29                     	;# 
  3457  0F2A                     	;# 
  3458  0F2B                     	;# 
  3459  0F2C                     	;# 
  3460  0F2D                     	;# 
  3461  0F2E                     	;# 
  3462  0F2F                     	;# 
  3463  0F30                     	;# 
  3464  0F31                     	;# 
  3465  0F32                     	;# 
  3466  0F33                     	;# 
  3467  0F34                     	;# 
  3468  0F35                     	;# 
  3469  0F36                     	;# 
  3470  0F37                     	;# 
  3471  0FE4                     	;# 
  3472  0FE5                     	;# 
  3473  0FE6                     	;# 
  3474  0FE7                     	;# 
  3475  0FE8                     	;# 
  3476  0FE9                     	;# 
  3477  0FEA                     	;# 
  3478  0FEB                     	;# 
  3479  0FED                     	;# 
  3480  0FEE                     	;# 
  3481  0FEF                     	;# 
  3482                           
  3483 ;; Function _EUSART_DefaultFramingErrorHandler is unused but had its address taken
  3484  0000                     
  3485 ;; Function _EUSART_DefaultOverrunErrorHandler is unused but had its address taken
  3486  0000                     
  3487 ;; Function _EUSART_DefaultErrorHandler is unused but had its address taken
  3488  0000                     
  3489                           	psect	nvBANK0
  3490  0030                     __pnvBANK0:
  3491  0030                     _EUSART_ErrorHandler:
  3492  0030                     	ds	2
  3493  0032                     _EUSART_OverrunErrorHandler:
  3494  0032                     	ds	2
  3495  0034                     _EUSART_FramingErrorHandler:
  3496  0034                     	ds	2
  3497  0036                     _temperature_enable_flag:
  3498  0036                     	ds	1
  3499  0011                     _PIR1bits	set	17
  3500  000D                     _PORTBbits	set	13
  3501  009D                     _ADCON0bits	set	157
  3502  009D                     _ADCON0	set	157
  3503  009C                     _ADRESH	set	156
  3504  009B                     _ADRESL	set	155
  3505  009F                     _ADCON2	set	159
  3506  009E                     _ADCON1	set	158
  3507  0097                     _WDTCON	set	151
  3508  0098                     _OSCTUNE	set	152
  3509  0099                     _OSCCON	set	153
  3510  0095                     _OPTION_REGbits	set	149
  3511  008F                     _TRISD	set	143
  3512  008E                     _TRISC	set	142
  3513  008D                     _TRISB	set	141
  3514  008C                     _TRISA	set	140
  3515  0090                     _TRISE	set	144
  3516  0116                     _BORCON	set	278
  3517  010E                     _LATC	set	270
  3518  010D                     _LATB	set	269
  3519  010C                     _LATA	set	268
  3520  010F                     _LATD	set	271
  3521  0110                     _LATE	set	272
  3522  010D                     _LATBbits	set	269
  3523  019A                     _TX1REG	set	410
  3524  0199                     _RC1REG	set	409
  3525  019D                     _RC1STAbits	set	413
  3526  019E                     _TX1STAbits	set	414
  3527  019C                     _SP1BRGH	set	412
  3528  019B                     _SP1BRGL	set	411
  3529  019E                     _TX1STA	set	414
  3530  019D                     _RC1STA	set	413
  3531  019F                     _BAUD1CON	set	415
  3532  018C                     _ANSELA	set	396
  3533  0190                     _ANSELE	set	400
  3534  018D                     _ANSELB	set	397
  3535  018E                     _ANSELC	set	398
  3536  018F                     _ANSELD	set	399
  3537  020E                     _WPUC	set	526
  3538  020C                     _WPUA	set	524
  3539  020D                     _WPUB	set	525
  3540  0210                     _WPUE	set	528
  3541  020F                     _WPUD	set	527
  3542  028F                     _ODCOND	set	655
  3543  028E                     _ODCONC	set	654
  3544  028D                     _ODCONB	set	653
  3545  028C                     _ODCONA	set	652
  3546  0290                     _ODCONE	set	656
  3547  0310                     _SLRCONE	set	784
  3548  030F                     _SLRCOND	set	783
  3549  030E                     _SLRCONC	set	782
  3550  030D                     _SLRCONB	set	781
  3551  030C                     _SLRCONA	set	780
  3552  0390                     _INLVLE	set	912
  3553  038F                     _INLVLD	set	911
  3554  038E                     _INLVLC	set	910
  3555  038D                     _INLVLB	set	909
  3556  038C                     _INLVLA	set	908
  3557  0EA6                     _RC6PPS	set	3750
  3558                           
  3559                           	psect	cinit
  3560  07F6                     start_initialization:	
  3561                           ; #config settings
  3562                           
  3563  07F6                     __initialization:
  3564                           
  3565                           ; Clear objects allocated to COMMON
  3566  07F6  01FD               	clrf	__pbssCOMMON& (0+127)
  3567                           
  3568                           ; Clear objects allocated to BANK0
  3569  07F7  0020               	movlb	0	; select bank0
  3570  07F8  01B7               	clrf	__pbssBANK0& (0+127)
  3571  07F9  01B8               	clrf	(__pbssBANK0+1)& (0+127)
  3572  07FA  01B9               	clrf	(__pbssBANK0+2)& (0+127)
  3573  07FB  01BA               	clrf	(__pbssBANK0+3)& (0+127)
  3574  07FC  01BB               	clrf	(__pbssBANK0+4)& (0+127)
  3575  07FD                     end_of_initialization:	
  3576                           ;End of C runtime variable initialization code
  3577                           
  3578  07FD                     __end_of__initialization:
  3579  07FD  0020               	movlb	0
  3580  07FE  3187  2F0F         	ljmp	_main	;jump to C main() function
  3581                           
  3582                           	psect	bssCOMMON
  3583  007D                     __pbssCOMMON:
  3584  007D                     _eusartRxLastError:
  3585  007D                     	ds	1
  3586                           
  3587                           	psect	bssBANK0
  3588  0037                     __pbssBANK0:
  3589  0037                     _ADC_InterruptHandler:
  3590  0037                     	ds	2
  3591  0039                     _but_audio:
  3592  0039                     	ds	1
  3593  003A                     _but_mode:
  3594  003A                     	ds	1
  3595  003B                     _but_on_off:
  3596  003B                     	ds	1
  3597                           
  3598                           	psect	cstackCOMMON
  3599  0070                     __pcstackCOMMON:
  3600  0070                     ?_SYSTEM_Initialize:
  3601  0070                     ?_memory_init:	
  3602                           ; 1 bytes @ 0x0
  3603                           
  3604  0070                     ??_memory_init:	
  3605                           ; 1 bytes @ 0x0
  3606                           
  3607  0070                     ?_memory_get:	
  3608                           ; 1 bytes @ 0x0
  3609                           
  3610  0070                     ?_audio_init:	
  3611                           ; 1 bytes @ 0x0
  3612                           
  3613  0070                     ??_audio_init:	
  3614                           ; 1 bytes @ 0x0
  3615                           
  3616  0070                     ?_buts_init:	
  3617                           ; 1 bytes @ 0x0
  3618                           
  3619  0070                     ??_buts_init:	
  3620                           ; 1 bytes @ 0x0
  3621                           
  3622  0070                     ??_temperature_init:	
  3623                           ; 1 bytes @ 0x0
  3624                           
  3625  0070                     ?_pixel_init:	
  3626                           ; 1 bytes @ 0x0
  3627                           
  3628  0070                     ??_pixel_init:	
  3629                           ; 1 bytes @ 0x0
  3630                           
  3631  0070                     ?_debug_init:	
  3632                           ; 1 bytes @ 0x0
  3633                           
  3634  0070                     ?_debug_get:	
  3635                           ; 1 bytes @ 0x0
  3636                           
  3637  0070                     ?_temperature_get:	
  3638                           ; 1 bytes @ 0x0
  3639                           
  3640  0070                     ?_buts_get:	
  3641                           ; 1 bytes @ 0x0
  3642                           
  3643  0070                     ??_buts_get:	
  3644                           ; 1 bytes @ 0x0
  3645                           
  3646  0070                     ?_memory_set:	
  3647                           ; 1 bytes @ 0x0
  3648                           
  3649  0070                     ?_audio_get:	
  3650                           ; 1 bytes @ 0x0
  3651                           
  3652  0070                     ?_pixel_set:	
  3653                           ; 1 bytes @ 0x0
  3654                           
  3655  0070                     ?_ADC_Initialize:	
  3656                           ; 1 bytes @ 0x0
  3657                           
  3658  0070                     ??_ADC_Initialize:	
  3659                           ; 1 bytes @ 0x0
  3660                           
  3661  0070                     ?_PIN_MANAGER_Initialize:	
  3662                           ; 1 bytes @ 0x0
  3663                           
  3664  0070                     ??_PIN_MANAGER_Initialize:	
  3665                           ; 1 bytes @ 0x0
  3666                           
  3667  0070                     ?_EUSART_Initialize:	
  3668                           ; 1 bytes @ 0x0
  3669                           
  3670  0070                     ?_OSCILLATOR_Initialize:	
  3671                           ; 1 bytes @ 0x0
  3672                           
  3673  0070                     ??_OSCILLATOR_Initialize:	
  3674                           ; 1 bytes @ 0x0
  3675                           
  3676  0070                     ?_WDT_Initialize:	
  3677                           ; 1 bytes @ 0x0
  3678                           
  3679  0070                     ??_WDT_Initialize:	
  3680                           ; 1 bytes @ 0x0
  3681                           
  3682  0070                     ?_EUSART_SetFramingErrorHandler:	
  3683                           ; 1 bytes @ 0x0
  3684                           
  3685  0070                     ?_EUSART_SetOverrunErrorHandler:	
  3686                           ; 1 bytes @ 0x0
  3687                           
  3688  0070                     ?_EUSART_SetErrorHandler:	
  3689                           ; 1 bytes @ 0x0
  3690                           
  3691  0070                     ?_main:	
  3692                           ; 1 bytes @ 0x0
  3693                           
  3694  0070                     ?_temperature_init:	
  3695                           ; 1 bytes @ 0x0
  3696                           
  3697  0070                     ?_ADC_GetConversion:	
  3698                           ; 2 bytes @ 0x0
  3699                           
  3700  0070                     ?___llmod:	
  3701                           ; 2 bytes @ 0x0
  3702                           
  3703  0070                     debug_get@status_on_off:	
  3704                           ; 4 bytes @ 0x0
  3705                           
  3706  0070                     debug_get@status_mode:	
  3707                           ; 1 bytes @ 0x0
  3708                           
  3709  0070                     memory_set@on_off:	
  3710                           ; 1 bytes @ 0x0
  3711                           
  3712  0070                     memory_set@mode:	
  3713                           ; 1 bytes @ 0x0
  3714                           
  3715  0070                     memory_get@mode:	
  3716                           ; 1 bytes @ 0x0
  3717                           
  3718  0070                     EUSART_SetFramingErrorHandler@interruptHandler:	
  3719                           ; 1 bytes @ 0x0
  3720                           
  3721  0070                     EUSART_SetOverrunErrorHandler@interruptHandler:	
  3722                           ; 2 bytes @ 0x0
  3723                           
  3724  0070                     EUSART_SetErrorHandler@interruptHandler:	
  3725                           ; 2 bytes @ 0x0
  3726                           
  3727  0070                     pixel_set@program_count:	
  3728                           ; 2 bytes @ 0x0
  3729                           
  3730  0070                     ___llmod@divisor:	
  3731                           ; 4 bytes @ 0x0
  3732                           
  3733                           
  3734                           ; 4 bytes @ 0x0
  3735  0070                     	ds	1
  3736  0071                     debug_get@status_audio:
  3737  0071                     memory_set@audio:	
  3738                           ; 1 bytes @ 0x1
  3739                           
  3740  0071                     memory_get@audio:	
  3741                           ; 1 bytes @ 0x1
  3742                           
  3743                           
  3744                           ; 1 bytes @ 0x1
  3745  0071                     	ds	1
  3746  0072                     ??_SYSTEM_Initialize:
  3747  0072                     ??_memory_get:	
  3748                           ; 1 bytes @ 0x2
  3749                           
  3750  0072                     ??_debug_init:	
  3751                           ; 1 bytes @ 0x2
  3752                           
  3753  0072                     ??_debug_get:	
  3754                           ; 1 bytes @ 0x2
  3755                           
  3756  0072                     ??_memory_set:	
  3757                           ; 1 bytes @ 0x2
  3758                           
  3759  0072                     ??_ADC_GetConversion:	
  3760                           ; 1 bytes @ 0x2
  3761                           
  3762  0072                     ??_EUSART_Initialize:	
  3763                           ; 1 bytes @ 0x2
  3764                           
  3765  0072                     ??_EUSART_SetFramingErrorHandler:	
  3766                           ; 1 bytes @ 0x2
  3767                           
  3768  0072                     ??_EUSART_SetOverrunErrorHandler:	
  3769                           ; 1 bytes @ 0x2
  3770                           
  3771  0072                     ??_EUSART_SetErrorHandler:	
  3772                           ; 1 bytes @ 0x2
  3773                           
  3774  0072                     memory_get@on_off:	
  3775                           ; 1 bytes @ 0x2
  3776                           
  3777                           
  3778                           ; 1 bytes @ 0x2
  3779  0072                     	ds	1
  3780  0073                     ADC_GetConversion@channel:
  3781                           
  3782                           ; 1 bytes @ 0x3
  3783  0073                     	ds	1
  3784  0074                     ??_temperature_get:
  3785  0074                     ??_audio_get:	
  3786                           ; 1 bytes @ 0x4
  3787                           
  3788  0074                     pixel_set@mode:	
  3789                           ; 1 bytes @ 0x4
  3790                           
  3791  0074                     temperature_get@result:	
  3792                           ; 1 bytes @ 0x4
  3793                           
  3794  0074                     audio_get@sample:	
  3795                           ; 1 bytes @ 0x4
  3796                           
  3797  0074                     ___llmod@dividend:	
  3798                           ; 2 bytes @ 0x4
  3799                           
  3800                           
  3801                           ; 4 bytes @ 0x4
  3802  0074                     	ds	1
  3803  0075                     pixel_set@flag_audio:
  3804  0075                     temperature_get@sample:	
  3805                           ; 1 bytes @ 0x5
  3806                           
  3807                           
  3808                           ; 2 bytes @ 0x5
  3809  0075                     	ds	1
  3810  0076                     pixel_set@audio_signal:
  3811                           
  3812                           ; 1 bytes @ 0x6
  3813  0076                     	ds	1
  3814  0077                     ??_pixel_set:
  3815                           
  3816                           ; 1 bytes @ 0x7
  3817  0077                     	ds	1
  3818  0078                     ??___llmod:
  3819                           
  3820                           ; 1 bytes @ 0x8
  3821  0078                     	ds	1
  3822  0079                     ___llmod@counter:
  3823                           
  3824                           ; 1 bytes @ 0x9
  3825  0079                     	ds	1
  3826  007A                     ??_main:
  3827                           
  3828                           ; 1 bytes @ 0xA
  3829  007A                     	ds	3
  3830                           
  3831                           	psect	cstackBANK0
  3832  0020                     __pcstackBANK0:
  3833  0020                     buts_get@flag_change:
  3834                           
  3835                           ; 1 bytes @ 0x0
  3836  0020                     	ds	1
  3837  0021                     buts_get@flag_on_off:
  3838                           
  3839                           ; 3 bytes @ 0x1
  3840  0021                     	ds	3
  3841  0024                     buts_get@flag_mode:
  3842                           
  3843                           ; 3 bytes @ 0x4
  3844  0024                     	ds	3
  3845  0027                     buts_get@flag_audio:
  3846                           
  3847                           ; 3 bytes @ 0x7
  3848  0027                     	ds	3
  3849  002A                     main@flag_save_status:
  3850                           
  3851                           ; 1 bytes @ 0xA
  3852  002A                     	ds	1
  3853  002B                     main@audio_signal:
  3854                           
  3855                           ; 1 bytes @ 0xB
  3856  002B                     	ds	1
  3857  002C                     main@program_counter:
  3858                           
  3859                           ; 4 bytes @ 0xC
  3860  002C                     	ds	4
  3861                           
  3862                           	psect	maintext
  3863  070F                     __pmaintext:	
  3864 ;;
  3865 ;;Main: autosize = 0, tempsize = 3, incstack = 0, save=0
  3866 ;;
  3867 ;; *************** function _main *****************
  3868 ;; Defined at:
  3869 ;;		line 58 in file "main.c"
  3870 ;; Parameters:    Size  Location     Type
  3871 ;;		None
  3872 ;; Auto vars:     Size  Location     Type
  3873 ;;  program_coun    4   12[BANK0 ] unsigned long 
  3874 ;;  audio_signal    1   11[BANK0 ] unsigned char 
  3875 ;;  flag_save_st    1   10[BANK0 ] _Bool 
  3876 ;; Return value:  Size  Location     Type
  3877 ;;                  1    wreg      void 
  3878 ;; Registers used:
  3879 ;;		wreg, fsr0l, fsr0h, status,2, status,0, pclath, cstack
  3880 ;; Tracked objects:
  3881 ;;		On entry : B1F/0
  3882 ;;		On exit  : 0/0
  3883 ;;		Unchanged: 0/0
  3884 ;; Data sizes:     COMMON   BANK0   BANK1   BANK2   BANK3   BANK4   BANK5   BANK6   BANK7   BANK8   BANK9  BANK10  BANK1
      +1  BANK12
  3885 ;;      Params:         0       0       0       0       0       0       0       0       0       0       0       0       
      +0       0
  3886 ;;      Locals:         0       6       0       0       0       0       0       0       0       0       0       0       
      +0       0
  3887 ;;      Temps:          3       0       0       0       0       0       0       0       0       0       0       0       
      +0       0
  3888 ;;      Totals:         3       6       0       0       0       0       0       0       0       0       0       0       
      +0       0
  3889 ;;Total ram usage:        9 bytes
  3890 ;; Hardware stack levels required when called:    3
  3891 ;; This function calls:
  3892 ;;		_SYSTEM_Initialize
  3893 ;;		___llmod
  3894 ;;		_audio_get
  3895 ;;		_audio_init
  3896 ;;		_buts_get
  3897 ;;		_buts_init
  3898 ;;		_debug_get
  3899 ;;		_debug_init
  3900 ;;		_memory_get
  3901 ;;		_memory_init
  3902 ;;		_memory_set
  3903 ;;		_pixel_init
  3904 ;;		_pixel_set
  3905 ;;		_temperature_get
  3906 ;;		_temperature_init
  3907 ;; This function is called by:
  3908 ;;		Startup code after reset
  3909 ;; This function uses a non-reentrant model
  3910 ;;
  3911                           
  3912                           
  3913                           ;psect for function _main
  3914  070F                     _main:
  3915  070F                     l1469:	
  3916                           ;incstack = 0
  3917                           ; Regs used in _main: [wreg-fsr0h+status,2+status,0+pclath+cstack]
  3918                           
  3919                           
  3920                           ;main.c: 61:     SYSTEM_Initialize();
  3921  070F  3185  2576  3187   	fcall	_SYSTEM_Initialize
  3922  0712                     l1471:
  3923                           
  3924                           ;main.c: 80:     memory_init();
  3925  0712  3185  252B  3187   	fcall	_memory_init
  3926  0715                     l1473:
  3927                           
  3928                           ;main.c: 81:     _Bool flag_save_status;;main.c: 84:     memory_get(&but_on_off,&but_mod
      +                          e,&but_audio);
  3929  0715  303A               	movlw	(low (_but_mode| 0))& (0+255)
  3930  0716  00FA               	movwf	??_main
  3931  0717  087A               	movf	??_main,w
  3932  0718  00F0               	movwf	memory_get@mode
  3933  0719  3039               	movlw	(low (_but_audio| 0))& (0+255)
  3934  071A  00FB               	movwf	??_main+1
  3935  071B  087B               	movf	??_main+1,w
  3936  071C  00F1               	movwf	memory_get@audio
  3937  071D  303B               	movlw	(low (_but_on_off| 0))& (0+255)
  3938  071E  3185  252A  3187   	fcall	_memory_get
  3939  0721                     l1475:
  3940                           
  3941                           ;main.c: 87:     audio_init();
  3942  0721  3185  2532  3187   	fcall	_audio_init
  3943  0724                     l1477:
  3944                           
  3945                           ;main.c: 90:     uint8_t audio_signal;;main.c: 93:     buts_init();
  3946  0724  3185  2536  3187   	fcall	_buts_init
  3947  0727                     l1479:
  3948                           
  3949                           ;main.c: 96:     temperature_init();
  3950  0727  3185  2557  3187   	fcall	_temperature_init
  3951  072A                     l1481:
  3952                           
  3953                           ;main.c: 99:     pixel_init();
  3954  072A  3185  252D  3187   	fcall	_pixel_init
  3955                           
  3956                           ;main.c: 102:     debug_init();
  3957  072D  3185  253A  3187   	fcall	_debug_init
  3958  0730                     l1483:
  3959                           
  3960                           ;main.c: 105:     uint32_t program_counter = 0;
  3961  0730  3000               	movlw	0
  3962  0731  0020               	movlb	0	; select bank0
  3963  0732  00AF               	movwf	main@program_counter+3
  3964  0733  3000               	movlw	0
  3965  0734  00AE               	movwf	main@program_counter+2
  3966  0735  3000               	movlw	0
  3967  0736  00AD               	movwf	main@program_counter+1
  3968  0737  3000               	movlw	0
  3969  0738  00AC               	movwf	main@program_counter
  3970  0739                     l1485:
  3971                           
  3972                           ;main.c: 108:     {;main.c: 110:         if(program_counter % (10000 )== 0){
  3973  0739  3000               	movlw	0
  3974  073A  00F3               	movwf	___llmod@divisor+3
  3975  073B  3000               	movlw	0
  3976  073C  00F2               	movwf	___llmod@divisor+2
  3977  073D  3027               	movlw	39
  3978  073E  00F1               	movwf	___llmod@divisor+1
  3979  073F  3010               	movlw	16
  3980  0740  00F0               	movwf	___llmod@divisor
  3981  0741  0020               	movlb	0	; select bank0
  3982  0742  082F               	movf	main@program_counter+3,w
  3983  0743  00F7               	movwf	___llmod@dividend+3
  3984  0744  082E               	movf	main@program_counter+2,w
  3985  0745  00F6               	movwf	___llmod@dividend+2
  3986  0746  082D               	movf	main@program_counter+1,w
  3987  0747  00F5               	movwf	___llmod@dividend+1
  3988  0748  082C               	movf	main@program_counter,w
  3989  0749  00F4               	movwf	___llmod@dividend
  3990  074A  3186  265A  3187   	fcall	___llmod
  3991  074D  0873               	movf	?___llmod+3,w
  3992  074E  0472               	iorwf	?___llmod+2,w
  3993  074F  0471               	iorwf	?___llmod+1,w
  3994  0750  0470               	iorwf	?___llmod,w
  3995  0751  1D03               	skipz
  3996  0752  2F54               	goto	u441
  3997  0753  2F55               	goto	u440
  3998  0754                     u441:
  3999  0754  2F62               	goto	l44
  4000  0755                     u440:
  4001  0755                     l1487:
  4002                           
  4003                           ;main.c: 111:             debug_get(but_on_off,but_mode,but_audio);
  4004  0755  0020               	movlb	0	; select bank0
  4005  0756  083A               	movf	_but_mode,w
  4006  0757  00FA               	movwf	??_main
  4007  0758  087A               	movf	??_main,w
  4008  0759  00F0               	movwf	debug_get@status_mode
  4009  075A  0839               	movf	_but_audio,w
  4010  075B  00FB               	movwf	??_main+1
  4011  075C  087B               	movf	??_main+1,w
  4012  075D  00F1               	movwf	debug_get@status_audio
  4013  075E  083B               	movf	_but_on_off,w
  4014  075F  3185  2529  3187   	fcall	_debug_get
  4015  0762                     l44:	
  4016                           ;main.c: 112:         }
  4017                           
  4018                           
  4019                           ;main.c: 115:         if(program_counter % (10000 )== 0){
  4020  0762  3000               	movlw	0
  4021  0763  00F3               	movwf	___llmod@divisor+3
  4022  0764  3000               	movlw	0
  4023  0765  00F2               	movwf	___llmod@divisor+2
  4024  0766  3027               	movlw	39
  4025  0767  00F1               	movwf	___llmod@divisor+1
  4026  0768  3010               	movlw	16
  4027  0769  00F0               	movwf	___llmod@divisor
  4028  076A  0020               	movlb	0	; select bank0
  4029  076B  082F               	movf	main@program_counter+3,w
  4030  076C  00F7               	movwf	___llmod@dividend+3
  4031  076D  082E               	movf	main@program_counter+2,w
  4032  076E  00F6               	movwf	___llmod@dividend+2
  4033  076F  082D               	movf	main@program_counter+1,w
  4034  0770  00F5               	movwf	___llmod@dividend+1
  4035  0771  082C               	movf	main@program_counter,w
  4036  0772  00F4               	movwf	___llmod@dividend
  4037  0773  3186  265A  3187   	fcall	___llmod
  4038  0776  0873               	movf	?___llmod+3,w
  4039  0777  0472               	iorwf	?___llmod+2,w
  4040  0778  0471               	iorwf	?___llmod+1,w
  4041  0779  0470               	iorwf	?___llmod,w
  4042  077A  1D03               	skipz
  4043  077B  2F7D               	goto	u451
  4044  077C  2F7E               	goto	u450
  4045  077D                     u451:
  4046  077D  2F85               	goto	l1491
  4047  077E                     u450:
  4048  077E                     l1489:
  4049                           
  4050                           ;main.c: 116:             temperature_enable_flag = temperature_get();
  4051  077E  3185  25DA  3187   	fcall	_temperature_get
  4052  0781  00FA               	movwf	??_main
  4053  0782  087A               	movf	??_main,w
  4054  0783  0020               	movlb	0	; select bank0
  4055  0784  00B6               	movwf	_temperature_enable_flag
  4056  0785                     l1491:
  4057                           
  4058                           ;main.c: 122:         if(temperature_enable_flag){
  4059  0785  0020               	movlb	0	; select bank0
  4060  0786  0836               	movf	_temperature_enable_flag,w
  4061  0787  1903               	btfsc	3,2
  4062  0788  2F8A               	goto	u461
  4063  0789  2F8B               	goto	u460
  4064  078A                     u461:
  4065  078A  2FDC               	goto	l1511
  4066  078B                     u460:
  4067  078B                     l1493:
  4068                           
  4069                           ;main.c: 127:             flag_save_status = buts_get();
  4070  078B  3186  26A4  3187   	fcall	_buts_get
  4071  078E  00FA               	movwf	??_main
  4072  078F  087A               	movf	??_main,w
  4073  0790  0020               	movlb	0	; select bank0
  4074  0791  00AA               	movwf	main@flag_save_status
  4075  0792                     l1495:
  4076                           
  4077                           ;main.c: 130:             if(flag_save_status){
  4078  0792  082A               	movf	main@flag_save_status,w
  4079  0793  1903               	btfsc	3,2
  4080  0794  2F96               	goto	u471
  4081  0795  2F97               	goto	u470
  4082  0796                     u471:
  4083  0796  2FA3               	goto	l1499
  4084  0797                     u470:
  4085  0797                     l1497:
  4086                           
  4087                           ;main.c: 131:                 memory_set(but_on_off,but_mode,but_audio);
  4088  0797  083A               	movf	_but_mode,w
  4089  0798  00FA               	movwf	??_main
  4090  0799  087A               	movf	??_main,w
  4091  079A  00F0               	movwf	memory_set@mode
  4092  079B  0839               	movf	_but_audio,w
  4093  079C  00FB               	movwf	??_main+1
  4094  079D  087B               	movf	??_main+1,w
  4095  079E  00F1               	movwf	memory_set@audio
  4096  079F  083B               	movf	_but_on_off,w
  4097  07A0  3185  252C  3187   	fcall	_memory_set
  4098  07A3                     l1499:
  4099                           
  4100                           ;main.c: 135:             if(but_on_off){
  4101  07A3  0020               	movlb	0	; select bank0
  4102  07A4  083B               	movf	_but_on_off,w
  4103  07A5  1903               	btfsc	3,2
  4104  07A6  2FA8               	goto	u481
  4105  07A7  2FA9               	goto	u480
  4106  07A8                     u481:
  4107  07A8  2FDC               	goto	l1511
  4108  07A9                     u480:
  4109  07A9                     l1501:
  4110                           
  4111                           ;main.c: 139:                 if(but_audio){
  4112  07A9  0839               	movf	_but_audio,w
  4113  07AA  1903               	btfsc	3,2
  4114  07AB  2FAD               	goto	u491
  4115  07AC  2FAE               	goto	u490
  4116  07AD                     u491:
  4117  07AD  2FB8               	goto	l53
  4118  07AE                     u490:
  4119  07AE                     l1503:
  4120                           
  4121                           ;main.c: 140:                     audio_signal = (uint8_t) audio_get();
  4122  07AE  3185  2567  3187   	fcall	_audio_get
  4123  07B1  00FA               	movwf	??_main
  4124  07B2  087A               	movf	??_main,w
  4125  07B3  0020               	movlb	0	; select bank0
  4126  07B4  00AB               	movwf	main@audio_signal
  4127  07B5                     l1505:
  4128  07B5  0022               	movlb	2	; select bank2
  4129  07B6  160D               	bsf	13,4	;volatile
  4130  07B7  2FBA               	goto	l1507
  4131  07B8                     l53:	
  4132                           ;main.c: 143:                     do { LATBbits.LATB4 = 0; } while(0);
  4133                           
  4134  07B8  0022               	movlb	2	; select bank2
  4135  07B9  120D               	bcf	13,4	;volatile
  4136  07BA                     l1507:
  4137                           
  4138                           ;main.c: 147:                  pixel_set(program_counter, but_mode, but_audio,audio_sign
      +                          al);
  4139  07BA  0020               	movlb	0	; select bank0
  4140  07BB  082F               	movf	main@program_counter+3,w
  4141  07BC  00F3               	movwf	pixel_set@program_count+3
  4142  07BD  082E               	movf	main@program_counter+2,w
  4143  07BE  00F2               	movwf	pixel_set@program_count+2
  4144  07BF  082D               	movf	main@program_counter+1,w
  4145  07C0  00F1               	movwf	pixel_set@program_count+1
  4146  07C1  082C               	movf	main@program_counter,w
  4147  07C2  00F0               	movwf	pixel_set@program_count
  4148  07C3  083A               	movf	_but_mode,w
  4149  07C4  00FA               	movwf	??_main
  4150  07C5  087A               	movf	??_main,w
  4151  07C6  00F4               	movwf	pixel_set@mode
  4152  07C7  0839               	movf	_but_audio,w
  4153  07C8  00FB               	movwf	??_main+1
  4154  07C9  087B               	movf	??_main+1,w
  4155  07CA  00F5               	movwf	pixel_set@flag_audio
  4156  07CB  082B               	movf	main@audio_signal,w
  4157  07CC  00FC               	movwf	??_main+2
  4158  07CD  087C               	movf	??_main+2,w
  4159  07CE  00F6               	movwf	pixel_set@audio_signal
  4160  07CF  3185  259D  3187   	fcall	_pixel_set
  4161  07D2                     l1509:
  4162                           
  4163                           ;main.c: 150:                 program_counter++;
  4164  07D2  3001               	movlw	1
  4165  07D3  0020               	movlb	0	; select bank0
  4166  07D4  07AC               	addwf	main@program_counter,f
  4167  07D5  3000               	movlw	0
  4168  07D6  3DAD               	addwfc	main@program_counter+1,f
  4169  07D7  3000               	movlw	0
  4170  07D8  3DAE               	addwfc	main@program_counter+2,f
  4171  07D9  3000               	movlw	0
  4172  07DA  3DAF               	addwfc	main@program_counter+3,f
  4173                           
  4174                           ;main.c: 152:             }else{
  4175  07DB  2F39               	goto	l1485
  4176  07DC                     l1511:
  4177                           
  4178                           ;main.c: 154:                 pixel_set(program_counter, MODE_OFF, but_audio,audio_signa
      +                          l);
  4179  07DC  082F               	movf	main@program_counter+3,w
  4180  07DD  00F3               	movwf	pixel_set@program_count+3
  4181  07DE  082E               	movf	main@program_counter+2,w
  4182  07DF  00F2               	movwf	pixel_set@program_count+2
  4183  07E0  082D               	movf	main@program_counter+1,w
  4184  07E1  00F1               	movwf	pixel_set@program_count+1
  4185  07E2  082C               	movf	main@program_counter,w
  4186  07E3  00F0               	movwf	pixel_set@program_count
  4187  07E4  3005               	movlw	5
  4188  07E5  00FA               	movwf	??_main
  4189  07E6  087A               	movf	??_main,w
  4190  07E7  00F4               	movwf	pixel_set@mode
  4191  07E8  0839               	movf	_but_audio,w
  4192  07E9  00FB               	movwf	??_main+1
  4193  07EA  087B               	movf	??_main+1,w
  4194  07EB  00F5               	movwf	pixel_set@flag_audio
  4195  07EC  082B               	movf	main@audio_signal,w
  4196  07ED  00FC               	movwf	??_main+2
  4197  07EE  087C               	movf	??_main+2,w
  4198  07EF  00F6               	movwf	pixel_set@audio_signal
  4199  07F0  3185  259D  3187   	fcall	_pixel_set
  4200  07F3  2F39               	goto	l1485
  4201  07F4  3180  2802         	ljmp	start
  4202  07F6                     __end_of_main:
  4203                           
  4204                           	psect	text1
  4205  0557                     __ptext1:	
  4206 ;; *************** function _temperature_init *****************
  4207 ;; Defined at:
  4208 ;;		line 11 in file "manager_temperature.c"
  4209 ;; Parameters:    Size  Location     Type
  4210 ;;		None
  4211 ;; Auto vars:     Size  Location     Type
  4212 ;;		None
  4213 ;; Return value:  Size  Location     Type
  4214 ;;                  2   12[None  ] int 
  4215 ;; Registers used:
  4216 ;;		wreg, status,2, status,0, pclath, cstack
  4217 ;; Tracked objects:
  4218 ;;		On entry : 0/0
  4219 ;;		On exit  : 0/0
  4220 ;;		Unchanged: 0/0
  4221 ;; Data sizes:     COMMON   BANK0   BANK1   BANK2   BANK3   BANK4   BANK5   BANK6   BANK7   BANK8   BANK9  BANK10  BANK1
      +1  BANK12
  4222 ;;      Params:         0       0       0       0       0       0       0       0       0       0       0       0       
      +0       0
  4223 ;;      Locals:         0       0       0       0       0       0       0       0       0       0       0       0       
      +0       0
  4224 ;;      Temps:          0       0       0       0       0       0       0       0       0       0       0       0       
      +0       0
  4225 ;;      Totals:         0       0       0       0       0       0       0       0       0       0       0       0       
      +0       0
  4226 ;;Total ram usage:        0 bytes
  4227 ;; Hardware stack levels used:    1
  4228 ;; Hardware stack levels required when called:    1
  4229 ;; This function calls:
  4230 ;;		_ADC_Initialize
  4231 ;; This function is called by:
  4232 ;;		_main
  4233 ;; This function uses a non-reentrant model
  4234 ;;
  4235                           
  4236                           
  4237                           ;psect for function _temperature_init
  4238  0557                     _temperature_init:
  4239  0557                     l1353:	
  4240                           ;incstack = 0
  4241                           ; Regs used in _temperature_init: [wreg+status,2+status,0+pclath+cstack]
  4242                           
  4243                           
  4244                           ;manager_temperature.c: 12:     ADC_Initialize();
  4245  0557  3185  255E  3185   	fcall	_ADC_Initialize
  4246  055A                     l1355:
  4247                           
  4248                           ;manager_temperature.c: 15:     temperature_enable_flag = 1;
  4249  055A  0020               	movlb	0	; select bank0
  4250  055B  01B6               	clrf	_temperature_enable_flag
  4251  055C  0AB6               	incf	_temperature_enable_flag,f
  4252  055D                     l139:
  4253  055D  0008               	return
  4254  055E                     __end_of_temperature_init:
  4255                           
  4256                           	psect	text2
  4257  05DA                     __ptext2:	
  4258 ;; *************** function _temperature_get *****************
  4259 ;; Defined at:
  4260 ;;		line 19 in file "manager_temperature.c"
  4261 ;; Parameters:    Size  Location     Type
  4262 ;;		None
  4263 ;; Auto vars:     Size  Location     Type
  4264 ;;  sample          2    5[COMMON] unsigned short 
  4265 ;;  result          1    4[COMMON] _Bool 
  4266 ;; Return value:  Size  Location     Type
  4267 ;;                  1    wreg      _Bool 
  4268 ;; Registers used:
  4269 ;;		wreg, status,2, status,0, pclath, cstack
  4270 ;; Tracked objects:
  4271 ;;		On entry : 0/0
  4272 ;;		On exit  : 0/0
  4273 ;;		Unchanged: 0/0
  4274 ;; Data sizes:     COMMON   BANK0   BANK1   BANK2   BANK3   BANK4   BANK5   BANK6   BANK7   BANK8   BANK9  BANK10  BANK1
      +1  BANK12
  4275 ;;      Params:         0       0       0       0       0       0       0       0       0       0       0       0       
      +0       0
  4276 ;;      Locals:         3       0       0       0       0       0       0       0       0       0       0       0       
      +0       0
  4277 ;;      Temps:          0       0       0       0       0       0       0       0       0       0       0       0       
      +0       0
  4278 ;;      Totals:         3       0       0       0       0       0       0       0       0       0       0       0       
      +0       0
  4279 ;;Total ram usage:        3 bytes
  4280 ;; Hardware stack levels used:    1
  4281 ;; Hardware stack levels required when called:    1
  4282 ;; This function calls:
  4283 ;;		_ADC_GetConversion
  4284 ;; This function is called by:
  4285 ;;		_main
  4286 ;; This function uses a non-reentrant model
  4287 ;;
  4288                           
  4289                           
  4290                           ;psect for function _temperature_get
  4291  05DA                     _temperature_get:
  4292  05DA                     l1361:	
  4293                           ;incstack = 0
  4294                           ; Regs used in _temperature_get: [wreg+status,2+status,0+pclath+cstack]
  4295                           
  4296                           
  4297                           ;manager_temperature.c: 21:    adc_result_t sample;;manager_temperature.c: 22:    _Bool 
      +                          result;;manager_temperature.c: 24:    sample = ADC_GetConversion(4);
  4298  05DA  3004               	movlw	4
  4299  05DB  3185  2586  3185   	fcall	_ADC_GetConversion
  4300  05DE  0871               	movf	?_ADC_GetConversion+1,w
  4301  05DF  00F6               	movwf	temperature_get@sample+1
  4302  05E0  0870               	movf	?_ADC_GetConversion,w
  4303  05E1  00F5               	movwf	temperature_get@sample
  4304  05E2                     l1363:
  4305                           
  4306                           ;manager_temperature.c: 27:    if(temperature_enable_flag){
  4307  05E2  0020               	movlb	0	; select bank0
  4308  05E3  0836               	movf	_temperature_enable_flag,w
  4309  05E4  1903               	btfsc	3,2
  4310  05E5  2DE7               	goto	u291
  4311  05E6  2DE8               	goto	u290
  4312  05E7                     u291:
  4313  05E7  2DFA               	goto	l1371
  4314  05E8                     u290:
  4315  05E8                     l1365:
  4316                           
  4317                           ;manager_temperature.c: 29:        if(sample >= 512){
  4318  05E8  3002               	movlw	2
  4319  05E9  0276               	subwf	temperature_get@sample+1,w
  4320  05EA  3000               	movlw	0
  4321  05EB  1903               	skipnz
  4322  05EC  0275               	subwf	temperature_get@sample,w
  4323  05ED  1C03               	skipc
  4324  05EE  2DF0               	goto	u301
  4325  05EF  2DF1               	goto	u300
  4326  05F0                     u301:
  4327  05F0  2DF5               	goto	l143
  4328  05F1                     u300:
  4329  05F1                     l1367:
  4330                           
  4331                           ;manager_temperature.c: 30:            result = 0;
  4332  05F1  01F4               	clrf	temperature_get@result
  4333  05F2                     l1369:
  4334  05F2  0022               	movlb	2	; select bank2
  4335  05F3  158D               	bsf	13,3	;volatile
  4336  05F4  2E14               	goto	l1379
  4337  05F5                     l143:	
  4338                           ;manager_temperature.c: 34:        else{
  4339                           
  4340                           
  4341                           ;manager_temperature.c: 35:            result = 1;
  4342  05F5  01F4               	clrf	temperature_get@result
  4343  05F6  0AF4               	incf	temperature_get@result,f
  4344  05F7                     l147:	
  4345                           ;manager_temperature.c: 36:            do { LATBbits.LATB3 = 0; } while(0);
  4346                           
  4347  05F7  0022               	movlb	2	; select bank2
  4348  05F8  118D               	bcf	13,3	;volatile
  4349  05F9  2E14               	goto	l1379
  4350  05FA                     l1371:
  4351                           
  4352                           ;manager_temperature.c: 41:        if(sample > (255 + 10) || sample < (255) ){
  4353  05FA  3001               	movlw	1
  4354  05FB  0276               	subwf	temperature_get@sample+1,w
  4355  05FC  300A               	movlw	10
  4356  05FD  1903               	skipnz
  4357  05FE  0275               	subwf	temperature_get@sample,w
  4358  05FF  1803               	skipnc
  4359  0600  2E02               	goto	u311
  4360  0601  2E03               	goto	u310
  4361  0602                     u311:
  4362  0602  2E0C               	goto	l152
  4363  0603                     u310:
  4364  0603                     l1373:
  4365  0603  3000               	movlw	0
  4366  0604  0276               	subwf	temperature_get@sample+1,w
  4367  0605  30FF               	movlw	255
  4368  0606  1903               	skipnz
  4369  0607  0275               	subwf	temperature_get@sample,w
  4370  0608  1803               	skipnc
  4371  0609  2E0B               	goto	u321
  4372  060A  2E0C               	goto	u320
  4373  060B                     u321:
  4374  060B  2E11               	goto	l1375
  4375  060C                     u320:
  4376  060C                     l152:
  4377                           
  4378                           ;manager_temperature.c: 42:            result = 1;
  4379  060C  01F4               	clrf	temperature_get@result
  4380  060D  0AF4               	incf	temperature_get@result,f
  4381  060E                     l153:	
  4382                           ;manager_temperature.c: 43:            do { LATBbits.LATB3 = 0; } while(0);
  4383                           
  4384  060E  0022               	movlb	2	; select bank2
  4385  060F  118D               	bcf	13,3	;volatile
  4386  0610  2E14               	goto	l1379
  4387  0611                     l1375:
  4388                           
  4389                           ;manager_temperature.c: 47:            result = 0;
  4390  0611  01F4               	clrf	temperature_get@result
  4391  0612                     l1377:
  4392  0612  0022               	movlb	2	; select bank2
  4393  0613  158D               	bsf	13,3	;volatile
  4394  0614                     l1379:
  4395                           
  4396                           ;manager_temperature.c: 53:    return result;
  4397  0614  0874               	movf	temperature_get@result,w
  4398  0615                     l158:
  4399  0615  0008               	return
  4400  0616                     __end_of_temperature_get:
  4401                           
  4402                           	psect	text3
  4403  059D                     __ptext3:	
  4404 ;; *************** function _pixel_set *****************
  4405 ;; Defined at:
  4406 ;;		line 16 in file "manager_pixel.c"
  4407 ;; Parameters:    Size  Location     Type
  4408 ;;  program_coun    4    0[COMMON] unsigned long 
  4409 ;;  mode            1    4[COMMON] unsigned char 
  4410 ;;  flag_audio      1    5[COMMON] unsigned char 
  4411 ;;  audio_signal    1    6[COMMON] unsigned char 
  4412 ;; Auto vars:     Size  Location     Type
  4413 ;;		None
  4414 ;; Return value:  Size  Location     Type
  4415 ;;                  1    wreg      void 
  4416 ;; Registers used:
  4417 ;;		wreg, fsr0l, fsr0h, status,2, status,0
  4418 ;; Tracked objects:
  4419 ;;		On entry : 0/0
  4420 ;;		On exit  : 0/0
  4421 ;;		Unchanged: 0/0
  4422 ;; Data sizes:     COMMON   BANK0   BANK1   BANK2   BANK3   BANK4   BANK5   BANK6   BANK7   BANK8   BANK9  BANK10  BANK1
      +1  BANK12
  4423 ;;      Params:         7       0       0       0       0       0       0       0       0       0       0       0       
      +0       0
  4424 ;;      Locals:         0       0       0       0       0       0       0       0       0       0       0       0       
      +0       0
  4425 ;;      Temps:          2       0       0       0       0       0       0       0       0       0       0       0       
      +0       0
  4426 ;;      Totals:         9       0       0       0       0       0       0       0       0       0       0       0       
      +0       0
  4427 ;;Total ram usage:        9 bytes
  4428 ;; Hardware stack levels used:    1
  4429 ;; This function calls:
  4430 ;;		Nothing
  4431 ;; This function is called by:
  4432 ;;		_main
  4433 ;; This function uses a non-reentrant model
  4434 ;;
  4435                           
  4436                           
  4437                           ;psect for function _pixel_set
  4438  059D                     _pixel_set:
  4439  059D                     l1423:	
  4440                           ;incstack = 0
  4441                           ; Regs used in _pixel_set: [wreg-fsr0h+status,2+status,0]
  4442                           
  4443                           
  4444                           ;manager_pixel.c: 20:     switch(mode){
  4445  059D  2D9F               	goto	l1443
  4446  059E                     l1425:
  4447  059E  2DB8               	goto	l128
  4448  059F                     l1443:
  4449  059F  0874               	movf	pixel_set@mode,w
  4450  05A0  00F7               	movwf	??_pixel_set
  4451  05A1  01F8               	clrf	??_pixel_set+1
  4452                           
  4453                           ; Switch on 2 bytes has been partitioned into a top level switch of size 1, and 1 sub-sw
      +                          itches
  4454                           ; Switch size 1, requested type "simple"
  4455                           ; Number of cases is 1, Range of values is 0 to 0
  4456                           ; switch strategies available:
  4457                           ; Name         Instructions Cycles
  4458                           ; simple_byte            4     3 (average)
  4459                           ; direct_byte            8     6 (fixed)
  4460                           ; jumptable            260     6 (fixed)
  4461                           ;	Chosen strategy is simple_byte
  4462  05A2  0878               	movf	??_pixel_set+1,w
  4463  05A3  3A00               	xorlw	0	; case 0
  4464  05A4  1903               	skipnz
  4465  05A5  2DA7               	goto	l1535
  4466  05A6  2DB8               	goto	l128
  4467  05A7                     l1535:
  4468                           
  4469                           ; Switch size 1, requested type "simple"
  4470                           ; Number of cases is 5, Range of values is 0 to 5
  4471                           ; switch strategies available:
  4472                           ; Name         Instructions Cycles
  4473                           ; simple_byte           16     9 (average)
  4474                           ; direct_byte           18     6 (fixed)
  4475                           ; jumptable            260     6 (fixed)
  4476                           ;	Chosen strategy is simple_byte
  4477  05A7  0877               	movf	??_pixel_set,w
  4478  05A8  3A00               	xorlw	0	; case 0
  4479  05A9  1903               	skipnz
  4480  05AA  2D9E               	goto	l1425
  4481  05AB  3A01               	xorlw	1	; case 1
  4482  05AC  1903               	skipnz
  4483  05AD  2D9E               	goto	l1425
  4484  05AE  3A03               	xorlw	3	; case 2
  4485  05AF  1903               	skipnz
  4486  05B0  2D9E               	goto	l1425
  4487  05B1  3A01               	xorlw	1	; case 3
  4488  05B2  1903               	skipnz
  4489  05B3  2D9E               	goto	l1425
  4490  05B4  3A06               	xorlw	6	; case 5
  4491  05B5  1903               	skipnz
  4492  05B6  2DB8               	goto	l128
  4493  05B7  2DB8               	goto	l128
  4494  05B8                     l128:
  4495  05B8  0008               	return
  4496  05B9                     __end_of_pixel_set:
  4497                           
  4498                           	psect	text4
  4499  052D                     __ptext4:	
  4500 ;; *************** function _pixel_init *****************
  4501 ;; Defined at:
  4502 ;;		line 12 in file "manager_pixel.c"
  4503 ;; Parameters:    Size  Location     Type
  4504 ;;		None
  4505 ;; Auto vars:     Size  Location     Type
  4506 ;;		None
  4507 ;; Return value:  Size  Location     Type
  4508 ;;                  1    wreg      void 
  4509 ;; Registers used:
  4510 ;;		None
  4511 ;; Tracked objects:
  4512 ;;		On entry : 0/0
  4513 ;;		On exit  : 0/0
  4514 ;;		Unchanged: 0/0
  4515 ;; Data sizes:     COMMON   BANK0   BANK1   BANK2   BANK3   BANK4   BANK5   BANK6   BANK7   BANK8   BANK9  BANK10  BANK1
      +1  BANK12
  4516 ;;      Params:         0       0       0       0       0       0       0       0       0       0       0       0       
      +0       0
  4517 ;;      Locals:         0       0       0       0       0       0       0       0       0       0       0       0       
      +0       0
  4518 ;;      Temps:          0       0       0       0       0       0       0       0       0       0       0       0       
      +0       0
  4519 ;;      Totals:         0       0       0       0       0       0       0       0       0       0       0       0       
      +0       0
  4520 ;;Total ram usage:        0 bytes
  4521 ;; Hardware stack levels used:    1
  4522 ;; This function calls:
  4523 ;;		Nothing
  4524 ;; This function is called by:
  4525 ;;		_main
  4526 ;; This function uses a non-reentrant model
  4527 ;;
  4528                           
  4529                           
  4530                           ;psect for function _pixel_init
  4531  052D                     _pixel_init:
  4532  052D                     l109:	
  4533                           ;incstack = 0
  4534                           ; Regs used in _pixel_init: []
  4535                           
  4536  052D  0008               	return
  4537  052E                     __end_of_pixel_init:
  4538                           
  4539                           	psect	text5
  4540  052C                     __ptext5:	
  4541 ;; *************** function _memory_set *****************
  4542 ;; Defined at:
  4543 ;;		line 16 in file "manager_memory.c"
  4544 ;; Parameters:    Size  Location     Type
  4545 ;;  on_off          1    wreg     unsigned char 
  4546 ;;  mode            1    0[COMMON] unsigned char 
  4547 ;;  audio           1    1[COMMON] unsigned char 
  4548 ;; Auto vars:     Size  Location     Type
  4549 ;;  on_off          1    0[COMMON] unsigned char 
  4550 ;; Return value:  Size  Location     Type
  4551 ;;                  1    wreg      void 
  4552 ;; Registers used:
  4553 ;;		wreg
  4554 ;; Tracked objects:
  4555 ;;		On entry : 0/0
  4556 ;;		On exit  : 0/0
  4557 ;;		Unchanged: 0/0
  4558 ;; Data sizes:     COMMON   BANK0   BANK1   BANK2   BANK3   BANK4   BANK5   BANK6   BANK7   BANK8   BANK9  BANK10  BANK1
      +1  BANK12
  4559 ;;      Params:         2       0       0       0       0       0       0       0       0       0       0       0       
      +0       0
  4560 ;;      Locals:         0       0       0       0       0       0       0       0       0       0       0       0       
      +0       0
  4561 ;;      Temps:          0       0       0       0       0       0       0       0       0       0       0       0       
      +0       0
  4562 ;;      Totals:         2       0       0       0       0       0       0       0       0       0       0       0       
      +0       0
  4563 ;;Total ram usage:        2 bytes
  4564 ;; Hardware stack levels used:    1
  4565 ;; This function calls:
  4566 ;;		Nothing
  4567 ;; This function is called by:
  4568 ;;		_main
  4569 ;; This function uses a non-reentrant model
  4570 ;;
  4571                           
  4572                           
  4573                           ;psect for function _memory_set
  4574  052C                     _memory_set:
  4575  052C                     l103:	
  4576                           ;incstack = 0
  4577                           ; Regs used in _memory_set: [wreg]
  4578                           
  4579  052C  0008               	return
  4580  052D                     __end_of_memory_set:
  4581                           
  4582                           	psect	text6
  4583  052B                     __ptext6:	
  4584 ;; *************** function _memory_init *****************
  4585 ;; Defined at:
  4586 ;;		line 12 in file "manager_memory.c"
  4587 ;; Parameters:    Size  Location     Type
  4588 ;;		None
  4589 ;; Auto vars:     Size  Location     Type
  4590 ;;		None
  4591 ;; Return value:  Size  Location     Type
  4592 ;;                  1    wreg      void 
  4593 ;; Registers used:
  4594 ;;		None
  4595 ;; Tracked objects:
  4596 ;;		On entry : 0/0
  4597 ;;		On exit  : 0/0
  4598 ;;		Unchanged: 0/0
  4599 ;; Data sizes:     COMMON   BANK0   BANK1   BANK2   BANK3   BANK4   BANK5   BANK6   BANK7   BANK8   BANK9  BANK10  BANK1
      +1  BANK12
  4600 ;;      Params:         0       0       0       0       0       0       0       0       0       0       0       0       
      +0       0
  4601 ;;      Locals:         0       0       0       0       0       0       0       0       0       0       0       0       
      +0       0
  4602 ;;      Temps:          0       0       0       0       0       0       0       0       0       0       0       0       
      +0       0
  4603 ;;      Totals:         0       0       0       0       0       0       0       0       0       0       0       0       
      +0       0
  4604 ;;Total ram usage:        0 bytes
  4605 ;; Hardware stack levels used:    1
  4606 ;; This function calls:
  4607 ;;		Nothing
  4608 ;; This function is called by:
  4609 ;;		_main
  4610 ;; This function uses a non-reentrant model
  4611 ;;
  4612                           
  4613                           
  4614                           ;psect for function _memory_init
  4615  052B                     _memory_init:
  4616  052B                     l100:	
  4617                           ;incstack = 0
  4618                           ; Regs used in _memory_init: []
  4619                           
  4620  052B  0008               	return
  4621  052C                     __end_of_memory_init:
  4622                           
  4623                           	psect	text7
  4624  052A                     __ptext7:	
  4625 ;; *************** function _memory_get *****************
  4626 ;; Defined at:
  4627 ;;		line 21 in file "manager_memory.c"
  4628 ;; Parameters:    Size  Location     Type
  4629 ;;  on_off          1    wreg     PTR unsigned char 
  4630 ;;		 -> but_on_off(1), 
  4631 ;;  mode            1    0[COMMON] PTR unsigned char 
  4632 ;;		 -> but_mode(1), 
  4633 ;;  audio           1    1[COMMON] PTR unsigned char 
  4634 ;;		 -> but_audio(1), 
  4635 ;; Auto vars:     Size  Location     Type
  4636 ;;  on_off          1    2[COMMON] PTR unsigned char 
  4637 ;;		 -> but_on_off(1), 
  4638 ;; Return value:  Size  Location     Type
  4639 ;;                  1    wreg      void 
  4640 ;; Registers used:
  4641 ;;		wreg
  4642 ;; Tracked objects:
  4643 ;;		On entry : 0/0
  4644 ;;		On exit  : 0/0
  4645 ;;		Unchanged: 0/0
  4646 ;; Data sizes:     COMMON   BANK0   BANK1   BANK2   BANK3   BANK4   BANK5   BANK6   BANK7   BANK8   BANK9  BANK10  BANK1
      +1  BANK12
  4647 ;;      Params:         2       0       0       0       0       0       0       0       0       0       0       0       
      +0       0
  4648 ;;      Locals:         1       0       0       0       0       0       0       0       0       0       0       0       
      +0       0
  4649 ;;      Temps:          0       0       0       0       0       0       0       0       0       0       0       0       
      +0       0
  4650 ;;      Totals:         3       0       0       0       0       0       0       0       0       0       0       0       
      +0       0
  4651 ;;Total ram usage:        3 bytes
  4652 ;; Hardware stack levels used:    1
  4653 ;; This function calls:
  4654 ;;		Nothing
  4655 ;; This function is called by:
  4656 ;;		_main
  4657 ;; This function uses a non-reentrant model
  4658 ;;
  4659                           
  4660                           
  4661                           ;psect for function _memory_get
  4662  052A                     _memory_get:
  4663  052A                     l106:	
  4664                           ;incstack = 0
  4665                           ; Regs used in _memory_get: [wreg]
  4666                           
  4667  052A  0008               	return
  4668  052B                     __end_of_memory_get:
  4669                           
  4670                           	psect	text8
  4671  053A                     __ptext8:	
  4672 ;; *************** function _debug_init *****************
  4673 ;; Defined at:
  4674 ;;		line 12 in file "manager_debug.c"
  4675 ;; Parameters:    Size  Location     Type
  4676 ;;		None
  4677 ;; Auto vars:     Size  Location     Type
  4678 ;;		None
  4679 ;; Return value:  Size  Location     Type
  4680 ;;                  1    wreg      void 
  4681 ;; Registers used:
  4682 ;;		wreg, status,2, status,0, pclath, cstack
  4683 ;; Tracked objects:
  4684 ;;		On entry : 0/0
  4685 ;;		On exit  : 0/0
  4686 ;;		Unchanged: 0/0
  4687 ;; Data sizes:     COMMON   BANK0   BANK1   BANK2   BANK3   BANK4   BANK5   BANK6   BANK7   BANK8   BANK9  BANK10  BANK1
      +1  BANK12
  4688 ;;      Params:         0       0       0       0       0       0       0       0       0       0       0       0       
      +0       0
  4689 ;;      Locals:         0       0       0       0       0       0       0       0       0       0       0       0       
      +0       0
  4690 ;;      Temps:          0       0       0       0       0       0       0       0       0       0       0       0       
      +0       0
  4691 ;;      Totals:         0       0       0       0       0       0       0       0       0       0       0       0       
      +0       0
  4692 ;;Total ram usage:        0 bytes
  4693 ;; Hardware stack levels used:    1
  4694 ;; Hardware stack levels required when called:    2
  4695 ;; This function calls:
  4696 ;;		_EUSART_Initialize
  4697 ;; This function is called by:
  4698 ;;		_main
  4699 ;; This function uses a non-reentrant model
  4700 ;;
  4701                           
  4702                           
  4703                           ;psect for function _debug_init
  4704  053A                     _debug_init:
  4705  053A                     l1359:	
  4706                           ;incstack = 0
  4707                           ; Regs used in _debug_init: [wreg+status,2+status,0+pclath+cstack]
  4708                           
  4709                           
  4710                           ;manager_debug.c: 14:     EUSART_Initialize();
  4711  053A  3185  25B9  3185   	fcall	_EUSART_Initialize
  4712  053D                     l94:
  4713  053D  0008               	return
  4714  053E                     __end_of_debug_init:
  4715                           
  4716                           	psect	text9
  4717  0529                     __ptext9:	
  4718 ;; *************** function _debug_get *****************
  4719 ;; Defined at:
  4720 ;;		line 17 in file "manager_debug.c"
  4721 ;; Parameters:    Size  Location     Type
  4722 ;;  status_on_of    1    wreg     unsigned char 
  4723 ;;  status_mode     1    0[COMMON] unsigned char 
  4724 ;;  status_audio    1    1[COMMON] unsigned char 
  4725 ;; Auto vars:     Size  Location     Type
  4726 ;;  status_on_of    1    0[COMMON] unsigned char 
  4727 ;; Return value:  Size  Location     Type
  4728 ;;                  1    wreg      void 
  4729 ;; Registers used:
  4730 ;;		wreg
  4731 ;; Tracked objects:
  4732 ;;		On entry : 0/0
  4733 ;;		On exit  : 0/0
  4734 ;;		Unchanged: 0/0
  4735 ;; Data sizes:     COMMON   BANK0   BANK1   BANK2   BANK3   BANK4   BANK5   BANK6   BANK7   BANK8   BANK9  BANK10  BANK1
      +1  BANK12
  4736 ;;      Params:         2       0       0       0       0       0       0       0       0       0       0       0       
      +0       0
  4737 ;;      Locals:         0       0       0       0       0       0       0       0       0       0       0       0       
      +0       0
  4738 ;;      Temps:          0       0       0       0       0       0       0       0       0       0       0       0       
      +0       0
  4739 ;;      Totals:         2       0       0       0       0       0       0       0       0       0       0       0       
      +0       0
  4740 ;;Total ram usage:        2 bytes
  4741 ;; Hardware stack levels used:    1
  4742 ;; This function calls:
  4743 ;;		Nothing
  4744 ;; This function is called by:
  4745 ;;		_main
  4746 ;; This function uses a non-reentrant model
  4747 ;;
  4748                           
  4749                           
  4750                           ;psect for function _debug_get
  4751  0529                     _debug_get:
  4752  0529                     l97:	
  4753                           ;incstack = 0
  4754                           ; Regs used in _debug_get: [wreg]
  4755                           
  4756  0529  0008               	return
  4757  052A                     __end_of_debug_get:
  4758                           
  4759                           	psect	text10
  4760  0536                     __ptext10:	
  4761 ;; *************** function _buts_init *****************
  4762 ;; Defined at:
  4763 ;;		line 12 in file "manager_button.c"
  4764 ;; Parameters:    Size  Location     Type
  4765 ;;		None
  4766 ;; Auto vars:     Size  Location     Type
  4767 ;;		None
  4768 ;; Return value:  Size  Location     Type
  4769 ;;                  1    wreg      void 
  4770 ;; Registers used:
  4771 ;;		wreg, status,2, status,0, pclath, cstack
  4772 ;; Tracked objects:
  4773 ;;		On entry : 0/0
  4774 ;;		On exit  : 0/0
  4775 ;;		Unchanged: 0/0
  4776 ;; Data sizes:     COMMON   BANK0   BANK1   BANK2   BANK3   BANK4   BANK5   BANK6   BANK7   BANK8   BANK9  BANK10  BANK1
      +1  BANK12
  4777 ;;      Params:         0       0       0       0       0       0       0       0       0       0       0       0       
      +0       0
  4778 ;;      Locals:         0       0       0       0       0       0       0       0       0       0       0       0       
      +0       0
  4779 ;;      Temps:          0       0       0       0       0       0       0       0       0       0       0       0       
      +0       0
  4780 ;;      Totals:         0       0       0       0       0       0       0       0       0       0       0       0       
      +0       0
  4781 ;;Total ram usage:        0 bytes
  4782 ;; Hardware stack levels used:    1
  4783 ;; Hardware stack levels required when called:    1
  4784 ;; This function calls:
  4785 ;;		_PIN_MANAGER_Initialize
  4786 ;; This function is called by:
  4787 ;;		_main
  4788 ;; This function uses a non-reentrant model
  4789 ;;
  4790                           
  4791                           
  4792                           ;psect for function _buts_init
  4793  0536                     _buts_init:
  4794  0536                     l1351:	
  4795                           ;incstack = 0
  4796                           ; Regs used in _buts_init: [wreg+status,2+status,0+pclath+cstack]
  4797                           
  4798                           
  4799                           ;manager_button.c: 13:     PIN_MANAGER_Initialize();
  4800  0536  3186  2616  3185   	fcall	_PIN_MANAGER_Initialize
  4801  0539                     l82:
  4802  0539  0008               	return
  4803  053A                     __end_of_buts_init:
  4804                           
  4805                           	psect	text11
  4806  06A4                     __ptext11:	
  4807 ;; *************** function _buts_get *****************
  4808 ;; Defined at:
  4809 ;;		line 16 in file "manager_button.c"
  4810 ;; Parameters:    Size  Location     Type
  4811 ;;		None
  4812 ;; Auto vars:     Size  Location     Type
  4813 ;;  flag_audio      3    7[BANK0 ] unsigned um
  4814 ;;  flag_mode       3    4[BANK0 ] unsigned um
  4815 ;;  flag_on_off     3    1[BANK0 ] unsigned um
  4816 ;;  flag_change     1    0[BANK0 ] _Bool 
  4817 ;; Return value:  Size  Location     Type
  4818 ;;                  1    wreg      _Bool 
  4819 ;; Registers used:
  4820 ;;		wreg, status,2, status,0
  4821 ;; Tracked objects:
  4822 ;;		On entry : 0/0
  4823 ;;		On exit  : 0/0
  4824 ;;		Unchanged: 0/0
  4825 ;; Data sizes:     COMMON   BANK0   BANK1   BANK2   BANK3   BANK4   BANK5   BANK6   BANK7   BANK8   BANK9  BANK10  BANK1
      +1  BANK12
  4826 ;;      Params:         0       0       0       0       0       0       0       0       0       0       0       0       
      +0       0
  4827 ;;      Locals:         0      10       0       0       0       0       0       0       0       0       0       0       
      +0       0
  4828 ;;      Temps:          6       0       0       0       0       0       0       0       0       0       0       0       
      +0       0
  4829 ;;      Totals:         6      10       0       0       0       0       0       0       0       0       0       0       
      +0       0
  4830 ;;Total ram usage:       16 bytes
  4831 ;; Hardware stack levels used:    1
  4832 ;; This function calls:
  4833 ;;		Nothing
  4834 ;; This function is called by:
  4835 ;;		_main
  4836 ;; This function uses a non-reentrant model
  4837 ;;
  4838                           
  4839                           
  4840                           ;psect for function _buts_get
  4841  06A4                     _buts_get:
  4842  06A4                     l1383:	
  4843                           ;incstack = 0
  4844                           ; Regs used in _buts_get: [wreg+status,2+status,0]
  4845                           
  4846                           
  4847                           ;manager_button.c: 18:     uint24_t flag_on_off,flag_mode,flag_audio;;manager_button.c: 
      +                          22:     _Bool flag_change = 0;
  4848  06A4  0020               	movlb	0	; select bank0
  4849  06A5  01A0               	clrf	buts_get@flag_change
  4850  06A6                     l1385:
  4851                           
  4852                           ;manager_button.c: 24:     flag_on_off = PORTBbits.RB0;
  4853  06A6  080D               	movf	13,w	;volatile
  4854  06A7  3901               	andlw	1
  4855  06A8  00F0               	movwf	??_buts_get
  4856  06A9  01F1               	clrf	??_buts_get+1
  4857  06AA  01F2               	clrf	??_buts_get+2
  4858  06AB  0870               	movf	??_buts_get,w
  4859  06AC  00A1               	movwf	buts_get@flag_on_off
  4860  06AD  0871               	movf	??_buts_get+1,w
  4861  06AE  00A2               	movwf	buts_get@flag_on_off+1
  4862  06AF  0872               	movf	??_buts_get+2,w
  4863  06B0  00A3               	movwf	buts_get@flag_on_off+2
  4864  06B1                     l1387:
  4865                           
  4866                           ;manager_button.c: 25:     flag_mode = PORTBbits.RB1;
  4867  06B1  0C0D               	rrf	13,w	;volatile
  4868  06B2  3901               	andlw	1
  4869  06B3  00F0               	movwf	??_buts_get
  4870  06B4  01F1               	clrf	??_buts_get+1
  4871  06B5  01F2               	clrf	??_buts_get+2
  4872  06B6  0870               	movf	??_buts_get,w
  4873  06B7  00A4               	movwf	buts_get@flag_mode
  4874  06B8  0871               	movf	??_buts_get+1,w
  4875  06B9  00A5               	movwf	buts_get@flag_mode+1
  4876  06BA  0872               	movf	??_buts_get+2,w
  4877  06BB  00A6               	movwf	buts_get@flag_mode+2
  4878  06BC                     l1389:
  4879                           
  4880                           ;manager_button.c: 26:     flag_audio = PORTBbits.RB2;
  4881  06BC  0C0D               	rrf	13,w	;volatile
  4882  06BD  0C89               	rrf	9,f
  4883  06BE  3901               	andlw	1
  4884  06BF  00F0               	movwf	??_buts_get
  4885  06C0  01F1               	clrf	??_buts_get+1
  4886  06C1  01F2               	clrf	??_buts_get+2
  4887  06C2  0870               	movf	??_buts_get,w
  4888  06C3  00A7               	movwf	buts_get@flag_audio
  4889  06C4  0871               	movf	??_buts_get+1,w
  4890  06C5  00A8               	movwf	buts_get@flag_audio+1
  4891  06C6  0872               	movf	??_buts_get+2,w
  4892  06C7  00A9               	movwf	buts_get@flag_audio+2
  4893  06C8                     l1391:
  4894                           
  4895                           ;manager_button.c: 29:     if(flag_on_off + flag_mode + flag_audio){
  4896  06C8  0827               	movf	buts_get@flag_audio,w
  4897  06C9  00F0               	movwf	??_buts_get
  4898  06CA  0828               	movf	buts_get@flag_audio+1,w
  4899  06CB  00F1               	movwf	??_buts_get+1
  4900  06CC  0829               	movf	buts_get@flag_audio+2,w
  4901  06CD  00F2               	movwf	??_buts_get+2
  4902  06CE  0821               	movf	buts_get@flag_on_off,w
  4903  06CF  0724               	addwf	buts_get@flag_mode,w
  4904  06D0  00F3               	movwf	??_buts_get+3
  4905  06D1  0822               	movf	buts_get@flag_on_off+1,w
  4906  06D2  3D25               	addwfc	buts_get@flag_mode+1,w
  4907  06D3  00F4               	movwf	??_buts_get+4
  4908  06D4  0823               	movf	buts_get@flag_on_off+2,w
  4909  06D5  3D26               	addwfc	buts_get@flag_mode+2,w
  4910  06D6  00F5               	movwf	??_buts_get+5
  4911  06D7  0873               	movf	??_buts_get+3,w
  4912  06D8  07F0               	addwf	??_buts_get,f
  4913  06D9  0874               	movf	??_buts_get+4,w
  4914  06DA  3DF1               	addwfc	??_buts_get+1,f
  4915  06DB  0875               	movf	??_buts_get+5,w
  4916  06DC  3DF2               	addwfc	??_buts_get+2,f
  4917  06DD  0872               	movf	??_buts_get+2,w
  4918  06DE  0471               	iorwf	??_buts_get+1,w
  4919  06DF  0470               	iorwf	??_buts_get,w
  4920  06E0  1903               	skipnz
  4921  06E1  2EE3               	goto	u331
  4922  06E2  2EE4               	goto	u330
  4923  06E3                     u331:
  4924  06E3  2EE6               	goto	l1395
  4925  06E4                     u330:
  4926  06E4                     l1393:
  4927                           
  4928                           ;manager_button.c: 30:         flag_change++;
  4929  06E4  01A0               	clrf	buts_get@flag_change
  4930  06E5  0AA0               	incf	buts_get@flag_change,f
  4931  06E6                     l1395:
  4932                           
  4933                           ;manager_button.c: 33:     if(flag_on_off){
  4934  06E6  0823               	movf	buts_get@flag_on_off+2,w
  4935  06E7  0422               	iorwf	buts_get@flag_on_off+1,w
  4936  06E8  0421               	iorwf	buts_get@flag_on_off,w
  4937  06E9  1903               	skipnz
  4938  06EA  2EEC               	goto	u341
  4939  06EB  2EED               	goto	u340
  4940  06EC                     u341:
  4941  06EC  2EF2               	goto	l1401
  4942  06ED                     u340:
  4943  06ED                     l1397:
  4944                           
  4945                           ;manager_button.c: 34:         but_on_off++;
  4946  06ED  3001               	movlw	1
  4947  06EE  00F0               	movwf	??_buts_get
  4948  06EF  0870               	movf	??_buts_get,w
  4949  06F0  07BB               	addwf	_but_on_off,f
  4950  06F1                     l1399:
  4951                           
  4952                           ;manager_button.c: 35:         but_on_off %= 1;
  4953  06F1  01BB               	clrf	_but_on_off
  4954  06F2                     l1401:
  4955                           
  4956                           ;manager_button.c: 37:     if(flag_mode){
  4957  06F2  0826               	movf	buts_get@flag_mode+2,w
  4958  06F3  0425               	iorwf	buts_get@flag_mode+1,w
  4959  06F4  0424               	iorwf	buts_get@flag_mode,w
  4960  06F5  1903               	skipnz
  4961  06F6  2EF8               	goto	u351
  4962  06F7  2EF9               	goto	u350
  4963  06F8                     u351:
  4964  06F8  2F01               	goto	l1405
  4965  06F9                     u350:
  4966  06F9                     l1403:
  4967                           
  4968                           ;manager_button.c: 38:         but_mode++;
  4969  06F9  3001               	movlw	1
  4970  06FA  00F0               	movwf	??_buts_get
  4971  06FB  0870               	movf	??_buts_get,w
  4972  06FC  07BA               	addwf	_but_mode,f
  4973                           
  4974                           ;manager_button.c: 39:         but_mode %= MODE_MAX;
  4975  06FD  3003               	movlw	3
  4976  06FE  00F0               	movwf	??_buts_get
  4977  06FF  0870               	movf	??_buts_get,w
  4978  0700  05BA               	andwf	_but_mode,f
  4979  0701                     l1405:
  4980                           
  4981                           ;manager_button.c: 41:     if(flag_audio){
  4982  0701  0829               	movf	buts_get@flag_audio+2,w
  4983  0702  0428               	iorwf	buts_get@flag_audio+1,w
  4984  0703  0427               	iorwf	buts_get@flag_audio,w
  4985  0704  1903               	skipnz
  4986  0705  2F07               	goto	u361
  4987  0706  2F08               	goto	u360
  4988  0707                     u361:
  4989  0707  2F0D               	goto	l1411
  4990  0708                     u360:
  4991  0708                     l1407:
  4992                           
  4993                           ;manager_button.c: 42:         but_audio++;
  4994  0708  3001               	movlw	1
  4995  0709  00F0               	movwf	??_buts_get
  4996  070A  0870               	movf	??_buts_get,w
  4997  070B  07B9               	addwf	_but_audio,f
  4998  070C                     l1409:
  4999                           
  5000                           ;manager_button.c: 43:         but_audio %= 1;
  5001  070C  01B9               	clrf	_but_audio
  5002  070D                     l1411:
  5003                           
  5004                           ;manager_button.c: 45:     return flag_change;
  5005  070D  0820               	movf	buts_get@flag_change,w
  5006  070E                     l89:
  5007  070E  0008               	return
  5008  070F                     __end_of_buts_get:
  5009                           
  5010                           	psect	text12
  5011  0532                     __ptext12:	
  5012 ;; *************** function _audio_init *****************
  5013 ;; Defined at:
  5014 ;;		line 13 in file "manager_audio.c"
  5015 ;; Parameters:    Size  Location     Type
  5016 ;;		None
  5017 ;; Auto vars:     Size  Location     Type
  5018 ;;		None
  5019 ;; Return value:  Size  Location     Type
  5020 ;;                  1    wreg      void 
  5021 ;; Registers used:
  5022 ;;		wreg, status,2, status,0, pclath, cstack
  5023 ;; Tracked objects:
  5024 ;;		On entry : 0/0
  5025 ;;		On exit  : 0/0
  5026 ;;		Unchanged: 0/0
  5027 ;; Data sizes:     COMMON   BANK0   BANK1   BANK2   BANK3   BANK4   BANK5   BANK6   BANK7   BANK8   BANK9  BANK10  BANK1
      +1  BANK12
  5028 ;;      Params:         0       0       0       0       0       0       0       0       0       0       0       0       
      +0       0
  5029 ;;      Locals:         0       0       0       0       0       0       0       0       0       0       0       0       
      +0       0
  5030 ;;      Temps:          0       0       0       0       0       0       0       0       0       0       0       0       
      +0       0
  5031 ;;      Totals:         0       0       0       0       0       0       0       0       0       0       0       0       
      +0       0
  5032 ;;Total ram usage:        0 bytes
  5033 ;; Hardware stack levels used:    1
  5034 ;; Hardware stack levels required when called:    1
  5035 ;; This function calls:
  5036 ;;		_ADC_Initialize
  5037 ;; This function is called by:
  5038 ;;		_main
  5039 ;; This function uses a non-reentrant model
  5040 ;;
  5041                           
  5042                           
  5043                           ;psect for function _audio_init
  5044  0532                     _audio_init:
  5045  0532                     l1349:	
  5046                           ;incstack = 0
  5047                           ; Regs used in _audio_init: [wreg+status,2+status,0+pclath+cstack]
  5048                           
  5049                           
  5050                           ;manager_audio.c: 14:     ADC_Initialize();
  5051  0532  3185  255E  3185   	fcall	_ADC_Initialize
  5052  0535                     l66:
  5053  0535  0008               	return
  5054  0536                     __end_of_audio_init:
  5055                           
  5056                           	psect	text13
  5057  0567                     __ptext13:	
  5058 ;; *************** function _audio_get *****************
  5059 ;; Defined at:
  5060 ;;		line 17 in file "manager_audio.c"
  5061 ;; Parameters:    Size  Location     Type
  5062 ;;		None
  5063 ;; Auto vars:     Size  Location     Type
  5064 ;;  sample          2    4[COMMON] unsigned short 
  5065 ;; Return value:  Size  Location     Type
  5066 ;;                  1    wreg      unsigned char 
  5067 ;; Registers used:
  5068 ;;		wreg, status,2, status,0, pclath, cstack
  5069 ;; Tracked objects:
  5070 ;;		On entry : 0/0
  5071 ;;		On exit  : 0/0
  5072 ;;		Unchanged: 0/0
  5073 ;; Data sizes:     COMMON   BANK0   BANK1   BANK2   BANK3   BANK4   BANK5   BANK6   BANK7   BANK8   BANK9  BANK10  BANK1
      +1  BANK12
  5074 ;;      Params:         0       0       0       0       0       0       0       0       0       0       0       0       
      +0       0
  5075 ;;      Locals:         2       0       0       0       0       0       0       0       0       0       0       0       
      +0       0
  5076 ;;      Temps:          0       0       0       0       0       0       0       0       0       0       0       0       
      +0       0
  5077 ;;      Totals:         2       0       0       0       0       0       0       0       0       0       0       0       
      +0       0
  5078 ;;Total ram usage:        2 bytes
  5079 ;; Hardware stack levels used:    1
  5080 ;; Hardware stack levels required when called:    1
  5081 ;; This function calls:
  5082 ;;		_ADC_GetConversion
  5083 ;; This function is called by:
  5084 ;;		_main
  5085 ;; This function uses a non-reentrant model
  5086 ;;
  5087                           
  5088                           
  5089                           ;psect for function _audio_get
  5090  0567                     _audio_get:
  5091  0567                     l1415:	
  5092                           ;incstack = 0
  5093                           ; Regs used in _audio_get: [wreg+status,2+status,0+pclath+cstack]
  5094                           
  5095                           
  5096                           ;manager_audio.c: 19:    adc_result_t sample;;manager_audio.c: 21:    sample = ADC_GetCo
      +                          nversion(ADC_AUDIO);
  5097  0567  3000               	movlw	0
  5098  0568  3185  2586  3185   	fcall	_ADC_GetConversion
  5099  056B  0871               	movf	?_ADC_GetConversion+1,w
  5100  056C  00F5               	movwf	audio_get@sample+1
  5101  056D  0870               	movf	?_ADC_GetConversion,w
  5102  056E  00F4               	movwf	audio_get@sample
  5103  056F                     l1417:
  5104                           
  5105                           ;manager_audio.c: 23:    sample /=4;
  5106  056F  3002               	movlw	2
  5107  0570                     u375:
  5108  0570  36F5               	lsrf	audio_get@sample+1,f
  5109  0571  0CF4               	rrf	audio_get@sample,f
  5110  0572  0B89               	decfsz	9,f
  5111  0573  2D70               	goto	u375
  5112  0574                     l1419:
  5113                           
  5114                           ;manager_audio.c: 25:    return (uint8_t)sample;
  5115  0574  0874               	movf	audio_get@sample,w
  5116  0575                     l69:
  5117  0575  0008               	return
  5118  0576                     __end_of_audio_get:
  5119                           
  5120                           	psect	text14
  5121  0586                     __ptext14:	
  5122 ;; *************** function _ADC_GetConversion *****************
  5123 ;; Defined at:
  5124 ;;		line 115 in file "mcc_generated_files/adc.c"
  5125 ;; Parameters:    Size  Location     Type
  5126 ;;  channel         1    wreg     enum E5578
  5127 ;; Auto vars:     Size  Location     Type
  5128 ;;  channel         1    3[COMMON] enum E5578
  5129 ;; Return value:  Size  Location     Type
  5130 ;;                  2    0[COMMON] unsigned short 
  5131 ;; Registers used:
  5132 ;;		wreg, status,2, status,0
  5133 ;; Tracked objects:
  5134 ;;		On entry : 0/0
  5135 ;;		On exit  : 0/0
  5136 ;;		Unchanged: 0/0
  5137 ;; Data sizes:     COMMON   BANK0   BANK1   BANK2   BANK3   BANK4   BANK5   BANK6   BANK7   BANK8   BANK9  BANK10  BANK1
      +1  BANK12
  5138 ;;      Params:         2       0       0       0       0       0       0       0       0       0       0       0       
      +0       0
  5139 ;;      Locals:         1       0       0       0       0       0       0       0       0       0       0       0       
      +0       0
  5140 ;;      Temps:          1       0       0       0       0       0       0       0       0       0       0       0       
      +0       0
  5141 ;;      Totals:         4       0       0       0       0       0       0       0       0       0       0       0       
      +0       0
  5142 ;;Total ram usage:        4 bytes
  5143 ;; Hardware stack levels used:    1
  5144 ;; This function calls:
  5145 ;;		Nothing
  5146 ;; This function is called by:
  5147 ;;		_audio_get
  5148 ;;		_temperature_get
  5149 ;; This function uses a non-reentrant model
  5150 ;;
  5151                           
  5152                           
  5153                           ;psect for function _ADC_GetConversion
  5154  0586                     _ADC_GetConversion:
  5155                           
  5156                           ;incstack = 0
  5157                           ; Regs used in _ADC_GetConversion: [wreg+status,2+status,0]
  5158                           ;ADC_GetConversion@channel stored from wreg
  5159  0586  00F3               	movwf	ADC_GetConversion@channel
  5160  0587                     l1269:
  5161                           
  5162                           ;mcc_generated_files/adc.c: 115: adc_result_t ADC_GetConversion(adc_channel_t channel);m
      +                          cc_generated_files/adc.c: 116: {;mcc_generated_files/adc.c: 118:     ADCON0bits.CHS = ch
      +                          annel;
  5163  0587  0873               	movf	ADC_GetConversion@channel,w
  5164  0588  00F2               	movwf	??_ADC_GetConversion
  5165  0589  0DF2               	rlf	??_ADC_GetConversion,f
  5166  058A  0DF2               	rlf	??_ADC_GetConversion,f
  5167  058B  0021               	movlb	1	; select bank1
  5168  058C  081D               	movf	29,w	;volatile
  5169  058D  0672               	xorwf	??_ADC_GetConversion,w
  5170  058E  3983               	andlw	-125
  5171  058F  0672               	xorwf	??_ADC_GetConversion,w
  5172  0590  009D               	movwf	29	;volatile
  5173  0591                     l1271:
  5174                           
  5175                           ;mcc_generated_files/adc.c: 121:     ADCON0bits.ADON = 1;
  5176  0591  141D               	bsf	29,0	;volatile
  5177  0592                     l1273:
  5178  0592                     l1275:	
  5179                           ;mcc_generated_files/adc.c: 124:     _delay((unsigned long)((5)*(500000/4000000.0)));
  5180                           
  5181                           
  5182                           ;mcc_generated_files/adc.c: 127:     ADCON0bits.GO_nDONE = 1;
  5183  0592  0021               	movlb	1	; select bank1
  5184  0593  149D               	bsf	29,1	;volatile
  5185  0594                     l299:	
  5186                           ;mcc_generated_files/adc.c: 131:     {;mcc_generated_files/adc.c: 132:     }
  5187                           
  5188                           
  5189                           ;mcc_generated_files/adc.c: 130:     while (ADCON0bits.GO_nDONE)
  5190  0594  189D               	btfsc	29,1	;volatile
  5191  0595  2D97               	goto	u281
  5192  0596  2D98               	goto	u280
  5193  0597                     u281:
  5194  0597  2D94               	goto	l299
  5195  0598                     u280:
  5196  0598                     l1277:
  5197                           
  5198                           ;mcc_generated_files/adc.c: 135:     return ((adc_result_t)((ADRESH << 8) + ADRESL));
  5199  0598  081C               	movf	28,w	;volatile
  5200  0599  00F1               	movwf	?_ADC_GetConversion+1
  5201  059A  081B               	movf	27,w	;volatile
  5202  059B  00F0               	movwf	?_ADC_GetConversion
  5203  059C                     l302:
  5204  059C  0008               	return
  5205  059D                     __end_of_ADC_GetConversion:
  5206                           
  5207                           	psect	text15
  5208  065A                     __ptext15:	
  5209 ;; *************** function ___llmod *****************
  5210 ;; Defined at:
  5211 ;;		line 5 in file "C:\Program Files\Microchip\xc8\v2.31\pic\sources\c99\common\llmod.c"
  5212 ;; Parameters:    Size  Location     Type
  5213 ;;  divisor         4    0[COMMON] unsigned long 
  5214 ;;  dividend        4    4[COMMON] unsigned long 
  5215 ;; Auto vars:     Size  Location     Type
  5216 ;;  counter         1    9[COMMON] unsigned char 
  5217 ;; Return value:  Size  Location     Type
  5218 ;;                  4    0[COMMON] unsigned long 
  5219 ;; Registers used:
  5220 ;;		wreg, status,2, status,0
  5221 ;; Tracked objects:
  5222 ;;		On entry : 0/0
  5223 ;;		On exit  : 0/0
  5224 ;;		Unchanged: 0/0
  5225 ;; Data sizes:     COMMON   BANK0   BANK1   BANK2   BANK3   BANK4   BANK5   BANK6   BANK7   BANK8   BANK9  BANK10  BANK1
      +1  BANK12
  5226 ;;      Params:         8       0       0       0       0       0       0       0       0       0       0       0       
      +0       0
  5227 ;;      Locals:         1       0       0       0       0       0       0       0       0       0       0       0       
      +0       0
  5228 ;;      Temps:          1       0       0       0       0       0       0       0       0       0       0       0       
      +0       0
  5229 ;;      Totals:        10       0       0       0       0       0       0       0       0       0       0       0       
      +0       0
  5230 ;;Total ram usage:       10 bytes
  5231 ;; Hardware stack levels used:    1
  5232 ;; This function calls:
  5233 ;;		Nothing
  5234 ;; This function is called by:
  5235 ;;		_main
  5236 ;; This function uses a non-reentrant model
  5237 ;;
  5238                           
  5239                           
  5240                           ;psect for function ___llmod
  5241  065A                     ___llmod:
  5242  065A                     l1449:	
  5243                           ;incstack = 0
  5244                           ; Regs used in ___llmod: [wreg+status,2+status,0]
  5245                           
  5246  065A  0873               	movf	___llmod@divisor+3,w
  5247  065B  0472               	iorwf	___llmod@divisor+2,w
  5248  065C  0471               	iorwf	___llmod@divisor+1,w
  5249  065D  0470               	iorwf	___llmod@divisor,w
  5250  065E  1903               	skipnz
  5251  065F  2E61               	goto	u381
  5252  0660  2E62               	goto	u380
  5253  0661                     u381:
  5254  0661  2E9B               	goto	l1465
  5255  0662                     u380:
  5256  0662                     l1451:
  5257  0662  01F9               	clrf	___llmod@counter
  5258  0663  0AF9               	incf	___llmod@counter,f
  5259  0664  2E70               	goto	l1455
  5260  0665                     l1453:
  5261  0665  3001               	movlw	1
  5262  0666                     u395:
  5263  0666  35F0               	lslf	___llmod@divisor,f
  5264  0667  0DF1               	rlf	___llmod@divisor+1,f
  5265  0668  0DF2               	rlf	___llmod@divisor+2,f
  5266  0669  0DF3               	rlf	___llmod@divisor+3,f
  5267  066A  0B89               	decfsz	9,f
  5268  066B  2E66               	goto	u395
  5269  066C  3001               	movlw	1
  5270  066D  00F8               	movwf	??___llmod
  5271  066E  0878               	movf	??___llmod,w
  5272  066F  07F9               	addwf	___llmod@counter,f
  5273  0670                     l1455:
  5274  0670  1FF3               	btfss	___llmod@divisor+3,7
  5275  0671  2E73               	goto	u401
  5276  0672  2E74               	goto	u400
  5277  0673                     u401:
  5278  0673  2E65               	goto	l1453
  5279  0674                     u400:
  5280  0674                     l1457:
  5281  0674  0873               	movf	___llmod@divisor+3,w
  5282  0675  0277               	subwf	___llmod@dividend+3,w
  5283  0676  1D03               	skipz
  5284  0677  2E82               	goto	u415
  5285  0678  0872               	movf	___llmod@divisor+2,w
  5286  0679  0276               	subwf	___llmod@dividend+2,w
  5287  067A  1D03               	skipz
  5288  067B  2E82               	goto	u415
  5289  067C  0871               	movf	___llmod@divisor+1,w
  5290  067D  0275               	subwf	___llmod@dividend+1,w
  5291  067E  1D03               	skipz
  5292  067F  2E82               	goto	u415
  5293  0680  0870               	movf	___llmod@divisor,w
  5294  0681  0274               	subwf	___llmod@dividend,w
  5295  0682                     u415:
  5296  0682  1C03               	skipc
  5297  0683  2E85               	goto	u411
  5298  0684  2E86               	goto	u410
  5299  0685                     u411:
  5300  0685  2E8E               	goto	l1461
  5301  0686                     u410:
  5302  0686                     l1459:
  5303  0686  0870               	movf	___llmod@divisor,w
  5304  0687  02F4               	subwf	___llmod@dividend,f
  5305  0688  0871               	movf	___llmod@divisor+1,w
  5306  0689  3BF5               	subwfb	___llmod@dividend+1,f
  5307  068A  0872               	movf	___llmod@divisor+2,w
  5308  068B  3BF6               	subwfb	___llmod@dividend+2,f
  5309  068C  0873               	movf	___llmod@divisor+3,w
  5310  068D  3BF7               	subwfb	___llmod@dividend+3,f
  5311  068E                     l1461:
  5312  068E  3001               	movlw	1
  5313  068F                     u425:
  5314  068F  36F3               	lsrf	___llmod@divisor+3,f
  5315  0690  0CF2               	rrf	___llmod@divisor+2,f
  5316  0691  0CF1               	rrf	___llmod@divisor+1,f
  5317  0692  0CF0               	rrf	___llmod@divisor,f
  5318  0693  0B89               	decfsz	9,f
  5319  0694  2E8F               	goto	u425
  5320  0695                     l1463:
  5321  0695  3001               	movlw	1
  5322  0696  02F9               	subwf	___llmod@counter,f
  5323  0697  1D03               	btfss	3,2
  5324  0698  2E9A               	goto	u431
  5325  0699  2E9B               	goto	u430
  5326  069A                     u431:
  5327  069A  2E74               	goto	l1457
  5328  069B                     u430:
  5329  069B                     l1465:
  5330  069B  0877               	movf	___llmod@dividend+3,w
  5331  069C  00F3               	movwf	?___llmod+3
  5332  069D  0876               	movf	___llmod@dividend+2,w
  5333  069E  00F2               	movwf	?___llmod+2
  5334  069F  0875               	movf	___llmod@dividend+1,w
  5335  06A0  00F1               	movwf	?___llmod+1
  5336  06A1  0874               	movf	___llmod@dividend,w
  5337  06A2  00F0               	movwf	?___llmod
  5338  06A3                     l691:
  5339  06A3  0008               	return
  5340  06A4                     __end_of___llmod:
  5341                           
  5342                           	psect	text16
  5343  0576                     __ptext16:	
  5344 ;; *************** function _SYSTEM_Initialize *****************
  5345 ;; Defined at:
  5346 ;;		line 50 in file "mcc_generated_files/mcc.c"
  5347 ;; Parameters:    Size  Location     Type
  5348 ;;		None
  5349 ;; Auto vars:     Size  Location     Type
  5350 ;;		None
  5351 ;; Return value:  Size  Location     Type
  5352 ;;                  1    wreg      void 
  5353 ;; Registers used:
  5354 ;;		wreg, status,2, status,0, pclath, cstack
  5355 ;; Tracked objects:
  5356 ;;		On entry : 0/0
  5357 ;;		On exit  : 0/0
  5358 ;;		Unchanged: 0/0
  5359 ;; Data sizes:     COMMON   BANK0   BANK1   BANK2   BANK3   BANK4   BANK5   BANK6   BANK7   BANK8   BANK9  BANK10  BANK1
      +1  BANK12
  5360 ;;      Params:         0       0       0       0       0       0       0       0       0       0       0       0       
      +0       0
  5361 ;;      Locals:         0       0       0       0       0       0       0       0       0       0       0       0       
      +0       0
  5362 ;;      Temps:          0       0       0       0       0       0       0       0       0       0       0       0       
      +0       0
  5363 ;;      Totals:         0       0       0       0       0       0       0       0       0       0       0       0       
      +0       0
  5364 ;;Total ram usage:        0 bytes
  5365 ;; Hardware stack levels used:    1
  5366 ;; Hardware stack levels required when called:    2
  5367 ;; This function calls:
  5368 ;;		_ADC_Initialize
  5369 ;;		_EUSART_Initialize
  5370 ;;		_OSCILLATOR_Initialize
  5371 ;;		_PIN_MANAGER_Initialize
  5372 ;;		_WDT_Initialize
  5373 ;; This function is called by:
  5374 ;;		_main
  5375 ;; This function uses a non-reentrant model
  5376 ;;
  5377                           
  5378                           
  5379                           ;psect for function _SYSTEM_Initialize
  5380  0576                     _SYSTEM_Initialize:
  5381  0576                     l1347:	
  5382                           ;incstack = 0
  5383                           ; Regs used in _SYSTEM_Initialize: [wreg+status,2+status,0+pclath+cstack]
  5384                           
  5385                           
  5386                           ;mcc_generated_files/mcc.c: 53:     PIN_MANAGER_Initialize();
  5387  0576  3186  2616  3185   	fcall	_PIN_MANAGER_Initialize
  5388                           
  5389                           ;mcc_generated_files/mcc.c: 54:     OSCILLATOR_Initialize();
  5390  0579  3185  2550  3185   	fcall	_OSCILLATOR_Initialize
  5391                           
  5392                           ;mcc_generated_files/mcc.c: 55:     WDT_Initialize();
  5393  057C  3185  252E  3185   	fcall	_WDT_Initialize
  5394                           
  5395                           ;mcc_generated_files/mcc.c: 56:     ADC_Initialize();
  5396  057F  3185  255E  3185   	fcall	_ADC_Initialize
  5397                           
  5398                           ;mcc_generated_files/mcc.c: 57:     EUSART_Initialize();
  5399  0582  3185  25B9  3185   	fcall	_EUSART_Initialize
  5400  0585                     l259:
  5401  0585  0008               	return
  5402  0586                     __end_of_SYSTEM_Initialize:
  5403                           
  5404                           	psect	text17
  5405  052E                     __ptext17:	
  5406 ;; *************** function _WDT_Initialize *****************
  5407 ;; Defined at:
  5408 ;;		line 70 in file "mcc_generated_files/mcc.c"
  5409 ;; Parameters:    Size  Location     Type
  5410 ;;		None
  5411 ;; Auto vars:     Size  Location     Type
  5412 ;;		None
  5413 ;; Return value:  Size  Location     Type
  5414 ;;                  1    wreg      void 
  5415 ;; Registers used:
  5416 ;;		wreg
  5417 ;; Tracked objects:
  5418 ;;		On entry : 0/0
  5419 ;;		On exit  : 0/0
  5420 ;;		Unchanged: 0/0
  5421 ;; Data sizes:     COMMON   BANK0   BANK1   BANK2   BANK3   BANK4   BANK5   BANK6   BANK7   BANK8   BANK9  BANK10  BANK1
      +1  BANK12
  5422 ;;      Params:         0       0       0       0       0       0       0       0       0       0       0       0       
      +0       0
  5423 ;;      Locals:         0       0       0       0       0       0       0       0       0       0       0       0       
      +0       0
  5424 ;;      Temps:          0       0       0       0       0       0       0       0       0       0       0       0       
      +0       0
  5425 ;;      Totals:         0       0       0       0       0       0       0       0       0       0       0       0       
      +0       0
  5426 ;;Total ram usage:        0 bytes
  5427 ;; Hardware stack levels used:    1
  5428 ;; This function calls:
  5429 ;;		Nothing
  5430 ;; This function is called by:
  5431 ;;		_SYSTEM_Initialize
  5432 ;; This function uses a non-reentrant model
  5433 ;;
  5434                           
  5435                           
  5436                           ;psect for function _WDT_Initialize
  5437  052E                     _WDT_Initialize:
  5438  052E                     l1345:	
  5439                           ;incstack = 0
  5440                           ; Regs used in _WDT_Initialize: [wreg]
  5441                           
  5442                           
  5443                           ;mcc_generated_files/mcc.c: 73:     WDTCON = 0x16;
  5444  052E  3016               	movlw	22
  5445  052F  0021               	movlb	1	; select bank1
  5446  0530  0097               	movwf	23	;volatile
  5447  0531                     l265:
  5448  0531  0008               	return
  5449  0532                     __end_of_WDT_Initialize:
  5450                           
  5451                           	psect	text18
  5452  0616                     __ptext18:	
  5453 ;; *************** function _PIN_MANAGER_Initialize *****************
  5454 ;; Defined at:
  5455 ;;		line 55 in file "mcc_generated_files/pin_manager.c"
  5456 ;; Parameters:    Size  Location     Type
  5457 ;;		None
  5458 ;; Auto vars:     Size  Location     Type
  5459 ;;		None
  5460 ;; Return value:  Size  Location     Type
  5461 ;;                  1    wreg      void 
  5462 ;; Registers used:
  5463 ;;		wreg, status,2
  5464 ;; Tracked objects:
  5465 ;;		On entry : 0/0
  5466 ;;		On exit  : 0/0
  5467 ;;		Unchanged: 0/0
  5468 ;; Data sizes:     COMMON   BANK0   BANK1   BANK2   BANK3   BANK4   BANK5   BANK6   BANK7   BANK8   BANK9  BANK10  BANK1
      +1  BANK12
  5469 ;;      Params:         0       0       0       0       0       0       0       0       0       0       0       0       
      +0       0
  5470 ;;      Locals:         0       0       0       0       0       0       0       0       0       0       0       0       
      +0       0
  5471 ;;      Temps:          0       0       0       0       0       0       0       0       0       0       0       0       
      +0       0
  5472 ;;      Totals:         0       0       0       0       0       0       0       0       0       0       0       0       
      +0       0
  5473 ;;Total ram usage:        0 bytes
  5474 ;; Hardware stack levels used:    1
  5475 ;; This function calls:
  5476 ;;		Nothing
  5477 ;; This function is called by:
  5478 ;;		_buts_init
  5479 ;;		_SYSTEM_Initialize
  5480 ;; This function uses a non-reentrant model
  5481 ;;
  5482                           
  5483                           
  5484                           ;psect for function _PIN_MANAGER_Initialize
  5485  0616                     _PIN_MANAGER_Initialize:
  5486  0616                     l1281:	
  5487                           ;incstack = 0
  5488                           ; Regs used in _PIN_MANAGER_Initialize: [wreg+status,2]
  5489                           
  5490                           
  5491                           ;mcc_generated_files/pin_manager.c: 60:     LATE = 0x00;
  5492  0616  0022               	movlb	2	; select bank2
  5493  0617  0190               	clrf	16	;volatile
  5494                           
  5495                           ;mcc_generated_files/pin_manager.c: 61:     LATD = 0x00;
  5496  0618  018F               	clrf	15	;volatile
  5497                           
  5498                           ;mcc_generated_files/pin_manager.c: 62:     LATA = 0x00;
  5499  0619  018C               	clrf	12	;volatile
  5500                           
  5501                           ;mcc_generated_files/pin_manager.c: 63:     LATB = 0x00;
  5502  061A  018D               	clrf	13	;volatile
  5503                           
  5504                           ;mcc_generated_files/pin_manager.c: 64:     LATC = 0x00;
  5505  061B  018E               	clrf	14	;volatile
  5506  061C                     l1283:
  5507                           
  5508                           ;mcc_generated_files/pin_manager.c: 69:     TRISE = 0x0F;
  5509  061C  300F               	movlw	15
  5510  061D  0021               	movlb	1	; select bank1
  5511  061E  0090               	movwf	16	;volatile
  5512  061F                     l1285:
  5513                           
  5514                           ;mcc_generated_files/pin_manager.c: 70:     TRISA = 0xFF;
  5515  061F  30FF               	movlw	255
  5516  0620  008C               	movwf	12	;volatile
  5517  0621                     l1287:
  5518                           
  5519                           ;mcc_generated_files/pin_manager.c: 71:     TRISB = 0xE7;
  5520  0621  30E7               	movlw	231
  5521  0622  008D               	movwf	13	;volatile
  5522  0623                     l1289:
  5523                           
  5524                           ;mcc_generated_files/pin_manager.c: 72:     TRISC = 0xBF;
  5525  0623  30BF               	movlw	191
  5526  0624  008E               	movwf	14	;volatile
  5527  0625                     l1291:
  5528                           
  5529                           ;mcc_generated_files/pin_manager.c: 73:     TRISD = 0xFF;
  5530  0625  30FF               	movlw	255
  5531  0626  008F               	movwf	15	;volatile
  5532  0627                     l1293:
  5533                           
  5534                           ;mcc_generated_files/pin_manager.c: 78:     ANSELD = 0xFF;
  5535  0627  30FF               	movlw	255
  5536  0628  0023               	movlb	3	; select bank3
  5537  0629  008F               	movwf	15	;volatile
  5538  062A                     l1295:
  5539                           
  5540                           ;mcc_generated_files/pin_manager.c: 79:     ANSELC = 0xFC;
  5541  062A  30FC               	movlw	252
  5542  062B  008E               	movwf	14	;volatile
  5543  062C                     l1297:
  5544                           
  5545                           ;mcc_generated_files/pin_manager.c: 80:     ANSELB = 0x38;
  5546  062C  3038               	movlw	56
  5547  062D  008D               	movwf	13	;volatile
  5548  062E                     l1299:
  5549                           
  5550                           ;mcc_generated_files/pin_manager.c: 81:     ANSELE = 0x07;
  5551  062E  3007               	movlw	7
  5552  062F  0090               	movwf	16	;volatile
  5553  0630                     l1301:
  5554                           
  5555                           ;mcc_generated_files/pin_manager.c: 82:     ANSELA = 0x3F;
  5556  0630  303F               	movlw	63
  5557  0631  008C               	movwf	12	;volatile
  5558                           
  5559                           ;mcc_generated_files/pin_manager.c: 87:     WPUD = 0x00;
  5560  0632  0024               	movlb	4	; select bank4
  5561  0633  018F               	clrf	15	;volatile
  5562                           
  5563                           ;mcc_generated_files/pin_manager.c: 88:     WPUE = 0x00;
  5564  0634  0190               	clrf	16	;volatile
  5565                           
  5566                           ;mcc_generated_files/pin_manager.c: 89:     WPUB = 0x00;
  5567  0635  018D               	clrf	13	;volatile
  5568                           
  5569                           ;mcc_generated_files/pin_manager.c: 90:     WPUA = 0x00;
  5570  0636  018C               	clrf	12	;volatile
  5571                           
  5572                           ;mcc_generated_files/pin_manager.c: 91:     WPUC = 0x00;
  5573  0637  018E               	clrf	14	;volatile
  5574  0638                     l1303:
  5575                           
  5576                           ;mcc_generated_files/pin_manager.c: 92:     OPTION_REGbits.nWPUEN = 1;
  5577  0638  0021               	movlb	1	; select bank1
  5578  0639  1795               	bsf	21,7	;volatile
  5579                           
  5580                           ;mcc_generated_files/pin_manager.c: 97:     ODCONE = 0x00;
  5581  063A  0025               	movlb	5	; select bank5
  5582  063B  0190               	clrf	16	;volatile
  5583                           
  5584                           ;mcc_generated_files/pin_manager.c: 98:     ODCONA = 0x00;
  5585  063C  018C               	clrf	12	;volatile
  5586                           
  5587                           ;mcc_generated_files/pin_manager.c: 99:     ODCONB = 0x00;
  5588  063D  018D               	clrf	13	;volatile
  5589                           
  5590                           ;mcc_generated_files/pin_manager.c: 100:     ODCONC = 0x00;
  5591  063E  018E               	clrf	14	;volatile
  5592                           
  5593                           ;mcc_generated_files/pin_manager.c: 101:     ODCOND = 0x00;
  5594  063F  018F               	clrf	15	;volatile
  5595  0640                     l1305:
  5596                           
  5597                           ;mcc_generated_files/pin_manager.c: 106:     SLRCONA = 0xFF;
  5598  0640  30FF               	movlw	255
  5599  0641  0026               	movlb	6	; select bank6
  5600  0642  008C               	movwf	12	;volatile
  5601  0643                     l1307:
  5602                           
  5603                           ;mcc_generated_files/pin_manager.c: 107:     SLRCONB = 0xFF;
  5604  0643  30FF               	movlw	255
  5605  0644  008D               	movwf	13	;volatile
  5606  0645                     l1309:
  5607                           
  5608                           ;mcc_generated_files/pin_manager.c: 108:     SLRCONC = 0xFF;
  5609  0645  30FF               	movlw	255
  5610  0646  008E               	movwf	14	;volatile
  5611  0647                     l1311:
  5612                           
  5613                           ;mcc_generated_files/pin_manager.c: 109:     SLRCOND = 0xFF;
  5614  0647  30FF               	movlw	255
  5615  0648  008F               	movwf	15	;volatile
  5616  0649                     l1313:
  5617                           
  5618                           ;mcc_generated_files/pin_manager.c: 110:     SLRCONE = 0x07;
  5619  0649  3007               	movlw	7
  5620  064A  0090               	movwf	16	;volatile
  5621  064B                     l1315:
  5622                           
  5623                           ;mcc_generated_files/pin_manager.c: 115:     INLVLA = 0xFF;
  5624  064B  30FF               	movlw	255
  5625  064C  0027               	movlb	7	; select bank7
  5626  064D  008C               	movwf	12	;volatile
  5627  064E                     l1317:
  5628                           
  5629                           ;mcc_generated_files/pin_manager.c: 116:     INLVLB = 0xFF;
  5630  064E  30FF               	movlw	255
  5631  064F  008D               	movwf	13	;volatile
  5632  0650                     l1319:
  5633                           
  5634                           ;mcc_generated_files/pin_manager.c: 117:     INLVLC = 0xFF;
  5635  0650  30FF               	movlw	255
  5636  0651  008E               	movwf	14	;volatile
  5637  0652                     l1321:
  5638                           
  5639                           ;mcc_generated_files/pin_manager.c: 118:     INLVLD = 0xFF;
  5640  0652  30FF               	movlw	255
  5641  0653  008F               	movwf	15	;volatile
  5642  0654                     l1323:
  5643                           
  5644                           ;mcc_generated_files/pin_manager.c: 119:     INLVLE = 0x0F;
  5645  0654  300F               	movlw	15
  5646  0655  0090               	movwf	16	;volatile
  5647  0656                     l1325:
  5648                           
  5649                           ;mcc_generated_files/pin_manager.c: 128:     RC6PPS = 0x14;
  5650  0656  3014               	movlw	20
  5651  0657  003D               	movlb	29	; select bank29
  5652  0658  00A6               	movwf	38	;volatile
  5653  0659                     l235:
  5654  0659  0008               	return
  5655  065A                     __end_of_PIN_MANAGER_Initialize:
  5656                           
  5657                           	psect	text19
  5658  0550                     __ptext19:	
  5659 ;; *************** function _OSCILLATOR_Initialize *****************
  5660 ;; Defined at:
  5661 ;;		line 60 in file "mcc_generated_files/mcc.c"
  5662 ;; Parameters:    Size  Location     Type
  5663 ;;		None
  5664 ;; Auto vars:     Size  Location     Type
  5665 ;;		None
  5666 ;; Return value:  Size  Location     Type
  5667 ;;                  1    wreg      void 
  5668 ;; Registers used:
  5669 ;;		wreg, status,2
  5670 ;; Tracked objects:
  5671 ;;		On entry : 0/0
  5672 ;;		On exit  : 0/0
  5673 ;;		Unchanged: 0/0
  5674 ;; Data sizes:     COMMON   BANK0   BANK1   BANK2   BANK3   BANK4   BANK5   BANK6   BANK7   BANK8   BANK9  BANK10  BANK1
      +1  BANK12
  5675 ;;      Params:         0       0       0       0       0       0       0       0       0       0       0       0       
      +0       0
  5676 ;;      Locals:         0       0       0       0       0       0       0       0       0       0       0       0       
      +0       0
  5677 ;;      Temps:          0       0       0       0       0       0       0       0       0       0       0       0       
      +0       0
  5678 ;;      Totals:         0       0       0       0       0       0       0       0       0       0       0       0       
      +0       0
  5679 ;;Total ram usage:        0 bytes
  5680 ;; Hardware stack levels used:    1
  5681 ;; This function calls:
  5682 ;;		Nothing
  5683 ;; This function is called by:
  5684 ;;		_SYSTEM_Initialize
  5685 ;; This function uses a non-reentrant model
  5686 ;;
  5687                           
  5688                           
  5689                           ;psect for function _OSCILLATOR_Initialize
  5690  0550                     _OSCILLATOR_Initialize:
  5691  0550                     l1339:	
  5692                           ;incstack = 0
  5693                           ; Regs used in _OSCILLATOR_Initialize: [wreg+status,2]
  5694                           
  5695                           
  5696                           ;mcc_generated_files/mcc.c: 63:     OSCCON = 0x38;
  5697  0550  3038               	movlw	56
  5698  0551  0021               	movlb	1	; select bank1
  5699  0552  0099               	movwf	25	;volatile
  5700  0553                     l1341:
  5701                           
  5702                           ;mcc_generated_files/mcc.c: 65:     OSCTUNE = 0x00;
  5703  0553  0198               	clrf	24	;volatile
  5704  0554                     l1343:
  5705                           
  5706                           ;mcc_generated_files/mcc.c: 67:     BORCON = 0x00;
  5707  0554  0022               	movlb	2	; select bank2
  5708  0555  0196               	clrf	22	;volatile
  5709  0556                     l262:
  5710  0556  0008               	return
  5711  0557                     __end_of_OSCILLATOR_Initialize:
  5712                           
  5713                           	psect	text20
  5714  05B9                     __ptext20:	
  5715 ;; *************** function _EUSART_Initialize *****************
  5716 ;; Defined at:
  5717 ;;		line 66 in file "mcc_generated_files/eusart.c"
  5718 ;; Parameters:    Size  Location     Type
  5719 ;;		None
  5720 ;; Auto vars:     Size  Location     Type
  5721 ;;		None
  5722 ;; Return value:  Size  Location     Type
  5723 ;;                  1    wreg      void 
  5724 ;; Registers used:
  5725 ;;		wreg, status,2, status,0, pclath, cstack
  5726 ;; Tracked objects:
  5727 ;;		On entry : 0/0
  5728 ;;		On exit  : 0/0
  5729 ;;		Unchanged: 0/0
  5730 ;; Data sizes:     COMMON   BANK0   BANK1   BANK2   BANK3   BANK4   BANK5   BANK6   BANK7   BANK8   BANK9  BANK10  BANK1
      +1  BANK12
  5731 ;;      Params:         0       0       0       0       0       0       0       0       0       0       0       0       
      +0       0
  5732 ;;      Locals:         0       0       0       0       0       0       0       0       0       0       0       0       
      +0       0
  5733 ;;      Temps:          0       0       0       0       0       0       0       0       0       0       0       0       
      +0       0
  5734 ;;      Totals:         0       0       0       0       0       0       0       0       0       0       0       0       
      +0       0
  5735 ;;Total ram usage:        0 bytes
  5736 ;; Hardware stack levels used:    1
  5737 ;; Hardware stack levels required when called:    1
  5738 ;; This function calls:
  5739 ;;		_EUSART_SetErrorHandler
  5740 ;;		_EUSART_SetFramingErrorHandler
  5741 ;;		_EUSART_SetOverrunErrorHandler
  5742 ;; This function is called by:
  5743 ;;		_debug_init
  5744 ;;		_SYSTEM_Initialize
  5745 ;; This function uses a non-reentrant model
  5746 ;;
  5747                           
  5748                           
  5749                           ;psect for function _EUSART_Initialize
  5750  05B9                     _EUSART_Initialize:
  5751  05B9                     l1327:	
  5752                           ;incstack = 0
  5753                           ; Regs used in _EUSART_Initialize: [wreg+status,2+status,0+pclath+cstack]
  5754                           
  5755                           
  5756                           ;mcc_generated_files/eusart.c: 71:     BAUD1CON = 0x08;
  5757  05B9  3008               	movlw	8
  5758  05BA  0023               	movlb	3	; select bank3
  5759  05BB  009F               	movwf	31	;volatile
  5760                           
  5761                           ;mcc_generated_files/eusart.c: 74:     RC1STA = 0x80;
  5762  05BC  3080               	movlw	128
  5763  05BD  009D               	movwf	29	;volatile
  5764                           
  5765                           ;mcc_generated_files/eusart.c: 77:     TX1STA = 0x24;
  5766  05BE  3024               	movlw	36
  5767  05BF  009E               	movwf	30	;volatile
  5768                           
  5769                           ;mcc_generated_files/eusart.c: 80:     SP1BRGL = 0x0C;
  5770  05C0  300C               	movlw	12
  5771  05C1  009B               	movwf	27	;volatile
  5772  05C2                     l1329:
  5773                           
  5774                           ;mcc_generated_files/eusart.c: 83:     SP1BRGH = 0x00;
  5775  05C2  019C               	clrf	28	;volatile
  5776  05C3                     l1331:
  5777                           
  5778                           ;mcc_generated_files/eusart.c: 86:     EUSART_SetFramingErrorHandler(EUSART_DefaultFrami
      +                          ngErrorHandler);
  5779  05C3  3000               	movlw	0
  5780  05C4  00F0               	movwf	EUSART_SetFramingErrorHandler@interruptHandler
  5781  05C5  3000               	movlw	0
  5782  05C6  00F1               	movwf	EUSART_SetFramingErrorHandler@interruptHandler+1
  5783  05C7  3185  2544  3185   	fcall	_EUSART_SetFramingErrorHandler
  5784  05CA                     l1333:
  5785                           
  5786                           ;mcc_generated_files/eusart.c: 87:     EUSART_SetOverrunErrorHandler(EUSART_DefaultOverr
      +                          unErrorHandler);
  5787  05CA  3000               	movlw	0
  5788  05CB  00F0               	movwf	EUSART_SetOverrunErrorHandler@interruptHandler
  5789  05CC  3000               	movlw	0
  5790  05CD  00F1               	movwf	EUSART_SetOverrunErrorHandler@interruptHandler+1
  5791  05CE  3185  254A  3185   	fcall	_EUSART_SetOverrunErrorHandler
  5792  05D1                     l1335:
  5793                           
  5794                           ;mcc_generated_files/eusart.c: 88:     EUSART_SetErrorHandler(EUSART_DefaultErrorHandler
      +                          );
  5795  05D1  3000               	movlw	0
  5796  05D2  00F0               	movwf	EUSART_SetErrorHandler@interruptHandler
  5797  05D3  3000               	movlw	0
  5798  05D4  00F1               	movwf	EUSART_SetErrorHandler@interruptHandler+1
  5799  05D5  3185  253E  3185   	fcall	_EUSART_SetErrorHandler
  5800  05D8                     l1337:
  5801                           
  5802                           ;mcc_generated_files/eusart.c: 90:     eusartRxLastError.status = 0;
  5803  05D8  01FD               	clrf	_eusartRxLastError	;volatile
  5804  05D9                     l348:
  5805  05D9  0008               	return
  5806  05DA                     __end_of_EUSART_Initialize:
  5807                           
  5808                           	psect	text21
  5809  054A                     __ptext21:	
  5810 ;; *************** function _EUSART_SetOverrunErrorHandler *****************
  5811 ;; Defined at:
  5812 ;;		line 161 in file "mcc_generated_files/eusart.c"
  5813 ;; Parameters:    Size  Location     Type
  5814 ;;  interruptHan    2    0[COMMON] PTR FTN()void 
  5815 ;;		 -> EUSART_DefaultOverrunErrorHandler(1), 
  5816 ;; Auto vars:     Size  Location     Type
  5817 ;;		None
  5818 ;; Return value:  Size  Location     Type
  5819 ;;                  1    wreg      void 
  5820 ;; Registers used:
  5821 ;;		wreg
  5822 ;; Tracked objects:
  5823 ;;		On entry : 0/0
  5824 ;;		On exit  : 0/0
  5825 ;;		Unchanged: 0/0
  5826 ;; Data sizes:     COMMON   BANK0   BANK1   BANK2   BANK3   BANK4   BANK5   BANK6   BANK7   BANK8   BANK9  BANK10  BANK1
      +1  BANK12
  5827 ;;      Params:         2       0       0       0       0       0       0       0       0       0       0       0       
      +0       0
  5828 ;;      Locals:         0       0       0       0       0       0       0       0       0       0       0       0       
      +0       0
  5829 ;;      Temps:          0       0       0       0       0       0       0       0       0       0       0       0       
      +0       0
  5830 ;;      Totals:         2       0       0       0       0       0       0       0       0       0       0       0       
      +0       0
  5831 ;;Total ram usage:        2 bytes
  5832 ;; Hardware stack levels used:    1
  5833 ;; This function calls:
  5834 ;;		Nothing
  5835 ;; This function is called by:
  5836 ;;		_EUSART_Initialize
  5837 ;; This function uses a non-reentrant model
  5838 ;;
  5839                           
  5840                           
  5841                           ;psect for function _EUSART_SetOverrunErrorHandler
  5842  054A                     _EUSART_SetOverrunErrorHandler:
  5843  054A                     l1255:	
  5844                           ;incstack = 0
  5845                           ; Regs used in _EUSART_SetOverrunErrorHandler: [wreg]
  5846                           
  5847                           
  5848                           ;mcc_generated_files/eusart.c: 162:     EUSART_OverrunErrorHandler = interruptHandler;
  5849  054A  0871               	movf	EUSART_SetOverrunErrorHandler@interruptHandler+1,w
  5850  054B  0020               	movlb	0	; select bank0
  5851  054C  00B3               	movwf	_EUSART_OverrunErrorHandler+1
  5852  054D  0870               	movf	EUSART_SetOverrunErrorHandler@interruptHandler,w
  5853  054E  00B2               	movwf	_EUSART_OverrunErrorHandler
  5854  054F                     l390:
  5855  054F  0008               	return
  5856  0550                     __end_of_EUSART_SetOverrunErrorHandler:
  5857                           
  5858                           	psect	text22
  5859  0544                     __ptext22:	
  5860 ;; *************** function _EUSART_SetFramingErrorHandler *****************
  5861 ;; Defined at:
  5862 ;;		line 157 in file "mcc_generated_files/eusart.c"
  5863 ;; Parameters:    Size  Location     Type
  5864 ;;  interruptHan    2    0[COMMON] PTR FTN()void 
  5865 ;;		 -> EUSART_DefaultFramingErrorHandler(1), 
  5866 ;; Auto vars:     Size  Location     Type
  5867 ;;		None
  5868 ;; Return value:  Size  Location     Type
  5869 ;;                  1    wreg      void 
  5870 ;; Registers used:
  5871 ;;		wreg
  5872 ;; Tracked objects:
  5873 ;;		On entry : 0/0
  5874 ;;		On exit  : 0/0
  5875 ;;		Unchanged: 0/0
  5876 ;; Data sizes:     COMMON   BANK0   BANK1   BANK2   BANK3   BANK4   BANK5   BANK6   BANK7   BANK8   BANK9  BANK10  BANK1
      +1  BANK12
  5877 ;;      Params:         2       0       0       0       0       0       0       0       0       0       0       0       
      +0       0
  5878 ;;      Locals:         0       0       0       0       0       0       0       0       0       0       0       0       
      +0       0
  5879 ;;      Temps:          0       0       0       0       0       0       0       0       0       0       0       0       
      +0       0
  5880 ;;      Totals:         2       0       0       0       0       0       0       0       0       0       0       0       
      +0       0
  5881 ;;Total ram usage:        2 bytes
  5882 ;; Hardware stack levels used:    1
  5883 ;; This function calls:
  5884 ;;		Nothing
  5885 ;; This function is called by:
  5886 ;;		_EUSART_Initialize
  5887 ;; This function uses a non-reentrant model
  5888 ;;
  5889                           
  5890                           
  5891                           ;psect for function _EUSART_SetFramingErrorHandler
  5892  0544                     _EUSART_SetFramingErrorHandler:
  5893  0544                     l1253:	
  5894                           ;incstack = 0
  5895                           ; Regs used in _EUSART_SetFramingErrorHandler: [wreg]
  5896                           
  5897                           
  5898                           ;mcc_generated_files/eusart.c: 158:     EUSART_FramingErrorHandler = interruptHandler;
  5899  0544  0871               	movf	EUSART_SetFramingErrorHandler@interruptHandler+1,w
  5900  0545  0020               	movlb	0	; select bank0
  5901  0546  00B5               	movwf	_EUSART_FramingErrorHandler+1
  5902  0547  0870               	movf	EUSART_SetFramingErrorHandler@interruptHandler,w
  5903  0548  00B4               	movwf	_EUSART_FramingErrorHandler
  5904  0549                     l387:
  5905  0549  0008               	return
  5906  054A                     __end_of_EUSART_SetFramingErrorHandler:
  5907                           
  5908                           	psect	text23
  5909  053E                     __ptext23:	
  5910 ;; *************** function _EUSART_SetErrorHandler *****************
  5911 ;; Defined at:
  5912 ;;		line 165 in file "mcc_generated_files/eusart.c"
  5913 ;; Parameters:    Size  Location     Type
  5914 ;;  interruptHan    2    0[COMMON] PTR FTN()void 
  5915 ;;		 -> EUSART_DefaultErrorHandler(1), 
  5916 ;; Auto vars:     Size  Location     Type
  5917 ;;		None
  5918 ;; Return value:  Size  Location     Type
  5919 ;;                  1    wreg      void 
  5920 ;; Registers used:
  5921 ;;		wreg
  5922 ;; Tracked objects:
  5923 ;;		On entry : 0/0
  5924 ;;		On exit  : 0/0
  5925 ;;		Unchanged: 0/0
  5926 ;; Data sizes:     COMMON   BANK0   BANK1   BANK2   BANK3   BANK4   BANK5   BANK6   BANK7   BANK8   BANK9  BANK10  BANK1
      +1  BANK12
  5927 ;;      Params:         2       0       0       0       0       0       0       0       0       0       0       0       
      +0       0
  5928 ;;      Locals:         0       0       0       0       0       0       0       0       0       0       0       0       
      +0       0
  5929 ;;      Temps:          0       0       0       0       0       0       0       0       0       0       0       0       
      +0       0
  5930 ;;      Totals:         2       0       0       0       0       0       0       0       0       0       0       0       
      +0       0
  5931 ;;Total ram usage:        2 bytes
  5932 ;; Hardware stack levels used:    1
  5933 ;; This function calls:
  5934 ;;		Nothing
  5935 ;; This function is called by:
  5936 ;;		_EUSART_Initialize
  5937 ;; This function uses a non-reentrant model
  5938 ;;
  5939                           
  5940                           
  5941                           ;psect for function _EUSART_SetErrorHandler
  5942  053E                     _EUSART_SetErrorHandler:
  5943  053E                     l1257:	
  5944                           ;incstack = 0
  5945                           ; Regs used in _EUSART_SetErrorHandler: [wreg]
  5946                           
  5947                           
  5948                           ;mcc_generated_files/eusart.c: 166:     EUSART_ErrorHandler = interruptHandler;
  5949  053E  0871               	movf	EUSART_SetErrorHandler@interruptHandler+1,w
  5950  053F  0020               	movlb	0	; select bank0
  5951  0540  00B1               	movwf	_EUSART_ErrorHandler+1
  5952  0541  0870               	movf	EUSART_SetErrorHandler@interruptHandler,w
  5953  0542  00B0               	movwf	_EUSART_ErrorHandler
  5954  0543                     l393:
  5955  0543  0008               	return
  5956  0544                     __end_of_EUSART_SetErrorHandler:
  5957                           
  5958                           	psect	text24
  5959  055E                     __ptext24:	
  5960 ;; *************** function _ADC_Initialize *****************
  5961 ;; Defined at:
  5962 ;;		line 67 in file "mcc_generated_files/adc.c"
  5963 ;; Parameters:    Size  Location     Type
  5964 ;;		None
  5965 ;; Auto vars:     Size  Location     Type
  5966 ;;		None
  5967 ;; Return value:  Size  Location     Type
  5968 ;;                  1    wreg      void 
  5969 ;; Registers used:
  5970 ;;		wreg, status,2
  5971 ;; Tracked objects:
  5972 ;;		On entry : 0/0
  5973 ;;		On exit  : 0/0
  5974 ;;		Unchanged: 0/0
  5975 ;; Data sizes:     COMMON   BANK0   BANK1   BANK2   BANK3   BANK4   BANK5   BANK6   BANK7   BANK8   BANK9  BANK10  BANK1
      +1  BANK12
  5976 ;;      Params:         0       0       0       0       0       0       0       0       0       0       0       0       
      +0       0
  5977 ;;      Locals:         0       0       0       0       0       0       0       0       0       0       0       0       
      +0       0
  5978 ;;      Temps:          0       0       0       0       0       0       0       0       0       0       0       0       
      +0       0
  5979 ;;      Totals:         0       0       0       0       0       0       0       0       0       0       0       0       
      +0       0
  5980 ;;Total ram usage:        0 bytes
  5981 ;; Hardware stack levels used:    1
  5982 ;; This function calls:
  5983 ;;		Nothing
  5984 ;; This function is called by:
  5985 ;;		_audio_init
  5986 ;;		_temperature_init
  5987 ;;		_SYSTEM_Initialize
  5988 ;; This function uses a non-reentrant model
  5989 ;;
  5990                           
  5991                           
  5992                           ;psect for function _ADC_Initialize
  5993  055E                     _ADC_Initialize:
  5994  055E                     l1259:	
  5995                           ;incstack = 0
  5996                           ; Regs used in _ADC_Initialize: [wreg+status,2]
  5997                           
  5998                           
  5999                           ;mcc_generated_files/adc.c: 72:     ADCON1 = 0x80;
  6000  055E  3080               	movlw	128
  6001  055F  0021               	movlb	1	; select bank1
  6002  0560  009E               	movwf	30	;volatile
  6003  0561                     l1261:
  6004                           
  6005                           ;mcc_generated_files/adc.c: 75:     ADCON2 = 0x00;
  6006  0561  019F               	clrf	31	;volatile
  6007  0562                     l1263:
  6008                           
  6009                           ;mcc_generated_files/adc.c: 78:     ADRESL = 0x00;
  6010  0562  019B               	clrf	27	;volatile
  6011  0563                     l1265:
  6012                           
  6013                           ;mcc_generated_files/adc.c: 81:     ADRESH = 0x00;
  6014  0563  019C               	clrf	28	;volatile
  6015  0564                     l1267:
  6016                           
  6017                           ;mcc_generated_files/adc.c: 84:     ADCON0 = 0x01;
  6018  0564  3001               	movlw	1
  6019  0565  009D               	movwf	29	;volatile
  6020  0566                     l284:
  6021  0566  0008               	return
  6022  0567                     __end_of_ADC_Initialize:
  6023  007E                     btemp	set	126	;btemp
  6024  007E                     wtemp0	set	126
  6025                           
  6026                           	psect	config
  6027                           
  6028                           ;Config register CONFIG1 @ 0x8007
  6029                           ;	Oscillator Selection Bits
  6030                           ;	FOSC = INTOSC, INTOSC oscillator: I/O function on CLKIN pin
  6031                           ;	Watchdog Timer Enable
  6032                           ;	WDTE = OFF, WDT disabled
  6033                           ;	Power-up Timer Enable
  6034                           ;	PWRTE = OFF, PWRT disabled
  6035                           ;	MCLR Pin Function Select
  6036                           ;	MCLRE = ON, MCLR/VPP pin function is MCLR
  6037                           ;	Flash Program Memory Code Protection
  6038                           ;	CP = OFF, Program memory code protection is disabled
  6039                           ;	Brown-out Reset Enable
  6040                           ;	BOREN = ON, Brown-out Reset enabled
  6041                           ;	Clock Out Enable
  6042                           ;	CLKOUTEN = OFF, CLKOUT function is disabled. I/O or oscillator function on the CLKOUT 
      +                          pin
  6043                           ;	Internal/External Switchover Mode
  6044                           ;	IESO = ON, Internal/External Switchover Mode is enabled
  6045                           ;	Fail-Safe Clock Monitor Enable
  6046                           ;	FCMEN = ON, Fail-Safe Clock Monitor is enabled
  6047  8007                     	org	32775
  6048  8007  3FE4               	dw	16356
  6049                           
  6050                           ;Config register CONFIG2 @ 0x8008
  6051                           ;	Flash Memory Self-Write Protection
  6052                           ;	WRT = OFF, Write protection off
  6053                           ;	Peripheral Pin Select one-way control
  6054                           ;	PPS1WAY = ON, The PPSLOCK bit cannot be cleared once it is set by software
  6055                           ;	Zero-cross detect disable
  6056                           ;	ZCDDIS = ON, Zero-cross detect circuit is disabled at POR and can be enabled with ZCDS
      +                          EN bit.
  6057                           ;	Phase Lock Loop enable
  6058                           ;	PLLEN = OFF, 4x PLL is enabled when software sets the SPLLEN bit
  6059                           ;	Stack Overflow/Underflow Reset Enable
  6060                           ;	STVREN = ON, Stack Overflow or Underflow will cause a Reset
  6061                           ;	Brown-out Reset Voltage Selection
  6062                           ;	BORV = LO, Brown-out Reset Voltage (Vbor), low trip point selected.
  6063                           ;	Low-Power Brown Out Reset
  6064                           ;	LPBOR = OFF, Low-Power BOR is disabled
  6065                           ;	Low-Voltage Programming Enable
  6066                           ;	LVP = ON, Low-voltage programming enabled
  6067  8008                     	org	32776
  6068  8008  3EFF               	dw	16127

Data Sizes:
    Strings     0
    Constant    0
    Data        0
    BSS         6
    Persistent  39
    Stack       0

Auto Spaces:
    Space          Size  Autos    Used
    COMMON           14     13      14
    BANK0            80     16      28
    BANK1            80      0       0
    BANK2            80      0       0
    BANK3            80      0       0
    BANK4            80      0       0
    BANK5            80      0       0
    BANK6            80      0       0
    BANK7            80      0       0
    BANK8            80      0       0
    BANK9            80      0       0
    BANK10           80      0       0
    BANK11           80      0       0
    BANK12           48      0       0

Pointer List with Targets:

    memory_get@audio	PTR unsigned char  size(1) Largest target is 1
		 -> but_audio(BANK0[1]), 

    memory_get@mode	PTR unsigned char  size(1) Largest target is 1
		 -> but_mode(BANK0[1]), 

    memory_get@on_off	PTR unsigned char  size(1) Largest target is 1
		 -> but_on_off(BANK0[1]), 

    ADC_InterruptHandler	PTR FTN()void  size(2) Largest target is 1
		 -> Absolute function(), 

    EUSART_SetErrorHandler@interruptHandler	PTR FTN()void  size(2) Largest target is 1
		 -> EUSART_DefaultErrorHandler(), 

    EUSART_ErrorHandler	PTR FTN()void  size(2) Largest target is 1
		 -> Absolute function(), EUSART_DefaultErrorHandler(), 

    EUSART_SetOverrunErrorHandler@interruptHandler	PTR FTN()void  size(2) Largest target is 1
		 -> EUSART_DefaultOverrunErrorHandler(), 

    EUSART_OverrunErrorHandler	PTR FTN()void  size(2) Largest target is 1
		 -> Absolute function(), EUSART_DefaultOverrunErrorHandler(), 

    EUSART_SetFramingErrorHandler@interruptHandler	PTR FTN()void  size(2) Largest target is 1
		 -> EUSART_DefaultFramingErrorHandler(), 

    EUSART_FramingErrorHandler	PTR FTN()void  size(2) Largest target is 1
		 -> Absolute function(), EUSART_DefaultFramingErrorHandler(), 


Critical Paths under _main in COMMON

    _main->___llmod
    _temperature_get->_ADC_GetConversion
    _audio_get->_ADC_GetConversion
    _EUSART_Initialize->_EUSART_SetErrorHandler
    _EUSART_Initialize->_EUSART_SetFramingErrorHandler
    _EUSART_Initialize->_EUSART_SetOverrunErrorHandler

Critical Paths under _main in BANK0

    _main->_buts_get

Critical Paths under _main in BANK1

    None.

Critical Paths under _main in BANK2

    None.

Critical Paths under _main in BANK3

    None.

Critical Paths under _main in BANK4

    None.

Critical Paths under _main in BANK5

    None.

Critical Paths under _main in BANK6

    None.

Critical Paths under _main in BANK7

    None.

Critical Paths under _main in BANK8

    None.

Critical Paths under _main in BANK9

    None.

Critical Paths under _main in BANK10

    None.

Critical Paths under _main in BANK11

    None.

Critical Paths under _main in BANK12

    None.

Call Graph Tables:

 ---------------------------------------------------------------------------------
 (Depth) Function   	        Calls       Base Space   Used Autos Params    Refs
 ---------------------------------------------------------------------------------
 (0) _main                                                 9     9      0    3101
                                             10 COMMON     3     3      0
                                             10 BANK0      6     6      0
                  _SYSTEM_Initialize
                            ___llmod
                          _audio_get
                         _audio_init
                           _buts_get
                          _buts_init
                          _debug_get
                         _debug_init
                         _memory_get
                        _memory_init
                         _memory_set
                         _pixel_init
                          _pixel_set
                    _temperature_get
                   _temperature_init
 ---------------------------------------------------------------------------------
 (1) _temperature_init                                     0     0      0       0
                     _ADC_Initialize
 ---------------------------------------------------------------------------------
 (1) _temperature_get                                      3     3      0     115
                                              4 COMMON     3     3      0
                  _ADC_GetConversion
 ---------------------------------------------------------------------------------
 (1) _pixel_set                                            9     2      7    1022
                                              0 COMMON     9     2      7
 ---------------------------------------------------------------------------------
 (1) _pixel_init                                           0     0      0       0
 ---------------------------------------------------------------------------------
 (1) _memory_set                                           3     1      2     152
                                              0 COMMON     2     0      2
 ---------------------------------------------------------------------------------
 (1) _memory_init                                          0     0      0       0
 ---------------------------------------------------------------------------------
 (1) _memory_get                                           3     1      2     202
                                              0 COMMON     3     1      2
 ---------------------------------------------------------------------------------
 (1) _debug_init                                           0     0      0     294
                  _EUSART_Initialize
 ---------------------------------------------------------------------------------
 (1) _debug_get                                            3     1      2     152
                                              0 COMMON     2     0      2
 ---------------------------------------------------------------------------------
 (1) _buts_init                                            0     0      0       0
             _PIN_MANAGER_Initialize
 ---------------------------------------------------------------------------------
 (1) _buts_get                                            16    16      0     159
                                              0 COMMON     6     6      0
                                              0 BANK0     10    10      0
 ---------------------------------------------------------------------------------
 (1) _audio_init                                           0     0      0       0
                     _ADC_Initialize
 ---------------------------------------------------------------------------------
 (1) _audio_get                                            2     2      0      46
                                              4 COMMON     2     2      0
                  _ADC_GetConversion
 ---------------------------------------------------------------------------------
 (2) _ADC_GetConversion                                    4     2      2      22
                                              0 COMMON     4     2      2
 ---------------------------------------------------------------------------------
 (1) ___llmod                                             10     2      8     463
                                              0 COMMON    10     2      8
 ---------------------------------------------------------------------------------
 (1) _SYSTEM_Initialize                                    0     0      0     294
                     _ADC_Initialize
                  _EUSART_Initialize
              _OSCILLATOR_Initialize
             _PIN_MANAGER_Initialize
                     _WDT_Initialize
 ---------------------------------------------------------------------------------
 (2) _WDT_Initialize                                       0     0      0       0
 ---------------------------------------------------------------------------------
 (2) _PIN_MANAGER_Initialize                               0     0      0       0
 ---------------------------------------------------------------------------------
 (2) _OSCILLATOR_Initialize                                0     0      0       0
 ---------------------------------------------------------------------------------
 (2) _EUSART_Initialize                                    0     0      0     294
             _EUSART_SetErrorHandler
      _EUSART_SetFramingErrorHandler
      _EUSART_SetOverrunErrorHandler
 ---------------------------------------------------------------------------------
 (3) _EUSART_SetOverrunErrorHandler                        2     0      2      98
                                              0 COMMON     2     0      2
 ---------------------------------------------------------------------------------
 (3) _EUSART_SetFramingErrorHandler                        2     0      2      98
                                              0 COMMON     2     0      2
 ---------------------------------------------------------------------------------
 (3) _EUSART_SetErrorHandler                               2     0      2      98
                                              0 COMMON     2     0      2
 ---------------------------------------------------------------------------------
 (2) _ADC_Initialize                                       0     0      0       0
 ---------------------------------------------------------------------------------
 Estimated maximum stack depth 3
 ---------------------------------------------------------------------------------

 Call Graph Graphs:

 _main (ROOT)
   _SYSTEM_Initialize
     _ADC_Initialize
     _EUSART_Initialize
       _EUSART_SetErrorHandler
       _EUSART_SetFramingErrorHandler
       _EUSART_SetOverrunErrorHandler
     _OSCILLATOR_Initialize
     _PIN_MANAGER_Initialize
     _WDT_Initialize
   ___llmod
   _audio_get
     _ADC_GetConversion
   _audio_init
     _ADC_Initialize
   _buts_get
   _buts_init
     _PIN_MANAGER_Initialize
   _debug_get
   _debug_init
     _EUSART_Initialize
       _EUSART_SetErrorHandler
       _EUSART_SetFramingErrorHandler
       _EUSART_SetOverrunErrorHandler
   _memory_get
   _memory_init
   _memory_set
   _pixel_init
   _pixel_set
   _temperature_get
     _ADC_GetConversion
   _temperature_init
     _ADC_Initialize

 Address spaces:
Name               Size   Autos  Total    Cost      Usage
BIGRAM             3F0      0       0       0        0.0%
NULL                 0      0       0       0        0.0%
CODE                 0      0       0       0        0.0%
BITCOMMON            E      0       0       1        0.0%
BITSFR0              0      0       0       1        0.0%
SFR0                 0      0       0       1        0.0%
COMMON               E      D       E       2      100.0%
BITSFR1              0      0       0       2        0.0%
SFR1                 0      0       0       2        0.0%
BITSFR2              0      0       0       3        0.0%
SFR2                 0      0       0       3        0.0%
STACK                0      0       0       3        0.0%
BITBANK0            50      0       0       4        0.0%
BITSFR3              0      0       0       4        0.0%
SFR3                 0      0       0       4        0.0%
BANK0               50     10      1C       5       35.0%
BITSFR4              0      0       0       5        0.0%
SFR4                 0      0       0       5        0.0%
BITBANK1            50      0       0       6        0.0%
BITSFR5              0      0       0       6        0.0%
SFR5                 0      0       0       6        0.0%
BANK1               50      0       0       7        0.0%
BITSFR6              0      0       0       7        0.0%
SFR6                 0      0       0       7        0.0%
BITBANK2            50      0       0       8        0.0%
BITSFR7              0      0       0       8        0.0%
SFR7                 0      0       0       8        0.0%
BANK2               50      0       0       9        0.0%
BITSFR8              0      0       0       9        0.0%
SFR8                 0      0       0       9        0.0%
BITBANK3            50      0       0      10        0.0%
BITSFR9              0      0       0      10        0.0%
SFR9                 0      0       0      10        0.0%
BANK3               50      0       0      11        0.0%
BITSFR10             0      0       0      11        0.0%
SFR10                0      0       0      11        0.0%
BITBANK4            50      0       0      12        0.0%
BITSFR11             0      0       0      12        0.0%
SFR11                0      0       0      12        0.0%
BANK4               50      0       0      13        0.0%
BITSFR12             0      0       0      13        0.0%
SFR12                0      0       0      13        0.0%
BITBANK5            50      0       0      14        0.0%
BITSFR13             0      0       0      14        0.0%
SFR13                0      0       0      14        0.0%
BANK5               50      0       0      15        0.0%
BITSFR14             0      0       0      15        0.0%
SFR14                0      0       0      15        0.0%
BITBANK6            50      0       0      16        0.0%
BITSFR15             0      0       0      16        0.0%
SFR15                0      0       0      16        0.0%
BANK6               50      0       0      17        0.0%
BITSFR16             0      0       0      17        0.0%
SFR16                0      0       0      17        0.0%
BITBANK7            50      0       0      18        0.0%
BITSFR17             0      0       0      18        0.0%
SFR17                0      0       0      18        0.0%
BANK7               50      0       0      19        0.0%
BITSFR18             0      0       0      19        0.0%
SFR18                0      0       0      19        0.0%
BITSFR19             0      0       0      20        0.0%
SFR19                0      0       0      20        0.0%
ABS                  0      0      2A      20        0.0%
BITBANK8            50      0       0      21        0.0%
BITSFR20             0      0       0      21        0.0%
SFR20                0      0       0      21        0.0%
BANK8               50      0       0      22        0.0%
BITSFR21             0      0       0      22        0.0%
SFR21                0      0       0      22        0.0%
BITBANK9            50      0       0      23        0.0%
BITSFR22             0      0       0      23        0.0%
SFR22                0      0       0      23        0.0%
BANK9               50      0       0      24        0.0%
BITSFR23             0      0       0      24        0.0%
SFR23                0      0       0      24        0.0%
BITBANK10           50      0       0      25        0.0%
BITSFR24             0      0       0      25        0.0%
SFR24                0      0       0      25        0.0%
BANK10              50      0       0      26        0.0%
BITSFR25             0      0       0      26        0.0%
SFR25                0      0       0      26        0.0%
BITBANK11           50      0       0      27        0.0%
BITSFR26             0      0       0      27        0.0%
SFR26                0      0       0      27        0.0%
BANK11              50      0       0      28        0.0%
BITSFR27             0      0       0      28        0.0%
SFR27                0      0       0      28        0.0%
BITBANK12           30      0       0      29        0.0%
BITSFR28             0      0       0      29        0.0%
SFR28                0      0       0      29        0.0%
BANK12              30      0       0      30        0.0%
BITSFR29             0      0       0      30        0.0%
SFR29                0      0       0      30        0.0%
BITSFR30             0      0       0      31        0.0%
SFR30                0      0       0      31        0.0%
DATA                 0      0      2A      31        0.0%
BITSFR31             0      0       0      32        0.0%
SFR31                0      0       0      32        0.0%


Microchip Technology PIC Macro Assembler V2.31 build 20201012212115 
Symbol Table                                                                                   Sat Apr 10 10:14:06 2021

                                           l44 0762                                             l53 07B8  
                                           l66 0535                                             l82 0539  
                                           l69 0575                                             l94 053D  
                                           l89 070E                                             l97 0529  
                                          l100 052B                                            l103 052C  
                                          l106 052A                                            l109 052D  
                                          l302 059C                                            l143 05F5  
                                          l128 05B8                                            l152 060C  
                                          l153 060E                                            l235 0659  
                                          l147 05F7                                            l139 055D  
                                          l262 0556                                            l158 0615  
                                          l265 0531                                            l259 0585  
                                          l284 0566                                            l348 05D9  
                                          l390 054F                                            l393 0543  
                                          l387 0549                                            l299 0594  
                                          l691 06A3                                            u300 05F1  
                                          u301 05F0                                            u310 0603  
                                          u311 0602                                            u400 0674  
                                          u320 060C                                            u401 0673  
                                          u321 060B                                            u410 0686  
                                          u330 06E4                                            u411 0685  
                                          u331 06E3                                            u340 06ED  
                                          u341 06EC                                            u430 069B  
                                          u350 06F9                                            u431 069A  
                                          u415 0682                                            u351 06F8  
                                          u280 0598                                            u360 0708  
                                          u440 0755                                            u425 068F  
                                          u281 0597                                            u361 0707  
                                          u441 0754                                            u290 05E8  
                                          u450 077E                                            u291 05E7  
                                          u451 077D                                            u380 0662  
                                          u460 078B                                            u381 0661  
                                          u461 078A                                            u470 0797  
                                          u375 0570                                            u471 0796  
                                          u480 07A9                                            u481 07A8  
                                          u490 07AE                                            u395 0666  
                                          u491 07AD                 ?_EUSART_SetFramingErrorHandler 0070  
                                          wreg 0009                                           l1301 0630  
                                         l1311 0647                                           l1303 0638  
                                         l1321 0652                                           l1313 0649  
                                         l1305 0640                                           l1401 06F2  
                                         l1331 05C3                                           l1323 0654  
                                         l1315 064B                                           l1307 0643  
                                         l1411 070D                                           l1403 06F9  
                                         l1261 0561                                           l1253 0544  
                                         l1333 05CA                                           l1341 0553  
                                         l1325 0656                                           l1317 064E  
                                         l1309 0645                                           l1405 0701  
                                         l1501 07A9                                           l1263 0562  
                                         l1255 054A                                           l1335 05D1  
                                         l1327 05B9                                           l1343 0554  
                                         l1319 0650                                           l1271 0591  
                                         l1415 0567                                           l1407 0708  
                                         l1351 0536                                           l1423 059D  
                                         l1503 07AE                                           l1511 07DC  
                                         l1265 0563                                           l1257 053E  
                                         l1337 05D8                                           l1329 05C2  
                                         l1281 0616                                           l1345 052E  
                                         l1273 0592                                           l1417 056F  
                                         l1409 070C                                           l1425 059E  
                                         l1361 05DA                                           l1353 0557  
                                         l1505 07B5                                           l1267 0564  
                                         l1259 055E                                           l1339 0550  
                                         l1291 0625                                           l1283 061C  
                                         l1347 0576                                           l1451 0662  
                                         l1275 0592                                           l1419 0574  
                                         l1443 059F                                           l1371 05FA  
                                         l1363 05E2                                           l1355 055A  
                                         l1507 07BA                                           l1293 0627  
                                         l1285 061F                                           l1461 068E  
                                         l1453 0665                                           l1277 0598  
                                         l1269 0587                                           l1349 0532  
                                         l1373 0603                                           l1365 05E8  
                                         l1509 07D2                                           l1295 062A  
                                         l1287 0621                                           l1463 0695  
                                         l1455 0670                                           l1391 06C8  
                                         l1383 06A4                                           l1359 053A  
                                         l1535 05A7                                           l1375 0611  
                                         l1367 05F1                                           l1471 0712  
                                         l1297 062C                                           l1289 0623  
                                         l1457 0674                                           l1465 069B  
                                         l1449 065A                                           l1393 06E4  
                                         l1385 06A6                                           l1377 0612  
                                         l1369 05F2                                           l1481 072A  
                                         l1473 0715                                           l1299 062E  
                                         l1459 0686                                           l1395 06E6  
                                         l1387 06B1                                           l1379 0614  
                                         l1491 0785                                           l1483 0730  
                                         l1475 0721                                           l1397 06ED  
                                         l1389 06BC                                           l1493 078B  
                                         l1485 0739                                           l1477 0724  
                                         l1469 070F                                           l1399 06F1  
                                         l1495 0792                                           l1487 0755  
                                         l1479 0727                                           l1497 0797  
                                         l1489 077E                                           l1499 07A3  
                                         _LATA 010C                                           _LATB 010D  
                                         _LATC 010E                                           _LATD 010F  
                                         _LATE 0110                                           _WPUA 020C  
                                         _WPUB 020D                                           _WPUC 020E  
                                         _WPUD 020F                                           _WPUE 0210  
                            ??_temperature_get 0074                                           _main 070F  
                                         btemp 007E                                           start 0002  
               __size_of_OSCILLATOR_Initialize 0007                  __end_of_OSCILLATOR_Initialize 0557  
                                        ?_main 0070                                __end_of___llmod 06A4  
                                        _TRISA 008C                                          _TRISB 008D  
                                        _TRISC 008E                                          _TRISD 008F  
                                        _TRISE 0090                              ?_temperature_init 0070  
                           ??_temperature_init 0070                                 _WDT_Initialize 052E  
                                 ?_memory_init 0070                                          status 0003  
                                        wtemp0 007E                                 memory_get@mode 0070  
                              __initialization 07F6                                   __end_of_main 07F6  
                               memory_set@mode 0070                                         ??_main 007A  
                       __end_of_WDT_Initialize 0532                          pixel_set@audio_signal 0076  
            _EUSART_DefaultFramingErrorHandler 0000                                         _ADCON0 009D  
                                       _ADCON1 009E                                         _ADCON2 009F  
                   _EUSART_OverrunErrorHandler 0032                               ___llmod@dividend 0074  
                                       _ADRESH 009C                                         _ADRESL 009B  
                                       _ANSELA 018C                                         _ANSELB 018D  
                                       _ANSELC 018E                                         _ANSELD 018F  
                                       _ANSELE 0190                                         _BORCON 0116  
                                       _RC1REG 0199                                         _RC1STA 019D  
                                       _ODCONA 028C                                         _ODCONB 028D  
                                       _RC6PPS 0EA6                                         _ODCONC 028E  
                                       _ODCOND 028F                                         _ODCONE 0290  
                                       _INLVLA 038C                                         _INLVLB 038D  
                                       _INLVLC 038E                                         _INLVLD 038F  
                                       _INLVLE 0390                                         _OSCCON 0099  
                                       _TX1REG 019A                                         _WDTCON 0097  
                                       _TX1STA 019E                                      ??___llmod 0078  
                             __end_of_buts_get 070F                                ?_WDT_Initialize 0070  
                     ADC_GetConversion@channel 0073                                memory_get@audio 0071  
                            _SYSTEM_Initialize 0576                        __end_of__initialization 07FD  
                           ?_SYSTEM_Initialize 0070                                 __pcstackCOMMON 0070  
                          ??_SYSTEM_Initialize 0072                             __size_of_debug_get 0001  
                               _OPTION_REGbits 0095                                _temperature_get 05DA  
                           __size_of_audio_get 000F                           main@flag_save_status 002A  
                              memory_set@audio 0071                ??_EUSART_SetOverrunErrorHandler 0072  
                             main@audio_signal 002B                      __end_of_SYSTEM_Initialize 0586  
                                   __pbssBANK0 0037                                     _debug_init 053A  
                           __size_of_buts_init 0004                           __size_of_memory_init 0001  
                                   __pmaintext 070F                        __size_of_ADC_Initialize 0009  
                           __size_of_pixel_set 001C                                     _audio_init 0532  
                                      _SP1BRGH 019C                                        _SP1BRGL 019B  
                                      _OSCTUNE 0098                                        _SLRCONA 030C  
                                      _SLRCONB 030D                                        _SLRCONC 030E  
                                      _SLRCOND 030F                                        _SLRCONE 0310  
                     ??_EUSART_SetErrorHandler 0072                              __end_of_debug_get 052A  
                                    ?_buts_get 0070                      __size_of_temperature_init 0007  
                                   _but_on_off 003B                           debug_get@status_mode 0070  
                         _ADC_InterruptHandler 0037                              __end_of_audio_get 0576  
                      _temperature_enable_flag 0036                                        ___llmod 065A  
                      __end_of_temperature_get 0616                             buts_get@flag_audio 0027  
                                      __ptext1 0557                                        __ptext2 05DA  
                                      __ptext3 059D                                        __ptext4 052D  
                                      __ptext5 052C                                        __ptext6 052B  
                                      __ptext7 052A                                        __ptext8 053A  
                                      __ptext9 0529                              __end_of_buts_init 053A  
                       pixel_set@program_count 0070                                     _memory_get 052A  
                        _OSCILLATOR_Initialize 0550                                     _memory_set 052C  
                     ??_PIN_MANAGER_Initialize 0070                     __size_of_SYSTEM_Initialize 0010  
                         end_of_initialization 07FD          __end_of_EUSART_SetOverrunErrorHandler 0550  
       __size_of_EUSART_SetOverrunErrorHandler 0006                  _EUSART_SetOverrunErrorHandler 054A  
                                   ??_buts_get 0070                                    ?_debug_init 0070  
                            __end_of_pixel_set 05B9                              _EUSART_Initialize 05B9  
                           ?_EUSART_Initialize 0070                                     _pixel_init 052D  
                          ??_EUSART_Initialize 0072                               ??_WDT_Initialize 0070  
                                    _PORTBbits 000D                                    ?_audio_init 0070  
                             memory_get@on_off 0072                __size_of_EUSART_SetErrorHandler 0006  
                    __end_of_EUSART_Initialize 05DA                            pixel_set@flag_audio 0075  
                   _EUSART_DefaultErrorHandler 0000                               ?_temperature_get 0070  
                               _ADC_Initialize 055E                         ?_OSCILLATOR_Initialize 0070  
                                  ?_memory_get 0070                                    ?_memory_set 0070  
                          __size_of_debug_init 0004                            start_initialization 07F6  
              __size_of_PIN_MANAGER_Initialize 0044                         debug_get@status_on_off 0070  
                              ___llmod@divisor 0070                               _temperature_init 0557  
                              ___llmod@counter 0079                            __size_of_audio_init 0004  
               ?_EUSART_SetOverrunErrorHandler 0070                               memory_set@on_off 0070  
                   _EUSART_FramingErrorHandler 0034                                    ?_pixel_init 0070  
                       _EUSART_SetErrorHandler 053E                         __end_of_ADC_Initialize 0567  
                                  __pbssCOMMON 007D                                      ___latbits 0002  
                                __pcstackBANK0 0020                                  ??_memory_init 0070  
                   __size_of_EUSART_Initialize 0021                                      __pnvBANK0 0030  
                                    _debug_get 0529                              __size_of_buts_get 006B  
                          __size_of_memory_get 0001                            __size_of_memory_set 0001  
                       _PIN_MANAGER_Initialize 0616                                       ?___llmod 0070  
                              ?_ADC_Initialize 0070                                      _audio_get 0567  
                                     _BAUD1CON 019F                                      _but_audio 0039  
                                    _buts_init 0536                            __size_of_pixel_init 0001  
                            buts_get@flag_mode 0024                                   ??_debug_init 0072  
       EUSART_SetErrorHandler@interruptHandler 0070                                       _LATBbits 010D  
                            _eusartRxLastError 007D                                     ?_debug_get 0070  
                                     _PIR1bits 0011                ??_EUSART_SetFramingErrorHandler 0072  
                          __end_of_memory_init 052C                                      _pixel_set 059D  
            _EUSART_DefaultOverrunErrorHandler 0000                                     ?_audio_get 0070  
                                   _ADCON0bits 009D                                   ??_audio_init 0070  
                           __end_of_debug_init 053E                                     ?_buts_init 0070  
                        debug_get@status_audio 0071                            main@program_counter 002C  
                           __end_of_audio_init 0536                              _ADC_GetConversion 0586  
                                   ?_pixel_set 0070                        ??_OSCILLATOR_Initialize 0070  
                          _EUSART_ErrorHandler 0030                             ?_ADC_GetConversion 0070  
                             __size_of___llmod 004A                                  pixel_set@mode 0074  
                                 ??_memory_get 0072                                   ??_memory_set 0072  
                     __end_of_temperature_init 055E                            ??_ADC_GetConversion 0072  
                          buts_get@flag_change 0020                          temperature_get@sample 0075  
                        temperature_get@result 0074                                       __ptext10 0536  
                                     __ptext11 06A4                                       __ptext20 05B9  
                                     __ptext12 0532                                       __ptext21 054A  
                                     __ptext13 0567                                       __ptext22 0544  
                                     __ptext14 0586                                       __ptext23 053E  
                                     __ptext15 065A                                       __ptext24 055E  
                                     __ptext16 0576                                       __ptext17 052E  
                                     __ptext18 0616                                       __ptext19 0550  
                          buts_get@flag_on_off 0021                                       _but_mode 003A  
                                  _memory_init 052B                                       _buts_get 06A4  
                                __size_of_main 00E7                                    ??_debug_get 0072  
                    __end_of_ADC_GetConversion 059D                        ?_EUSART_SetErrorHandler 0070  
                           __end_of_memory_get 052B                                     _RC1STAbits 019D  
                           __end_of_memory_set 052D  EUSART_SetOverrunErrorHandler@interruptHandler 0070  
                                 ??_pixel_init 0070                                    ??_audio_get 0074  
        __end_of_EUSART_SetFramingErrorHandler 054A         __size_of_EUSART_SetFramingErrorHandler 0006  
                _EUSART_SetFramingErrorHandler 0544                       __size_of_temperature_get 003C  
                                  ??_buts_init 0070                        __size_of_WDT_Initialize 0004  
                           __end_of_pixel_init 052E                        ?_PIN_MANAGER_Initialize 0070  
               __end_of_EUSART_SetErrorHandler 0544                               ??_ADC_Initialize 0070  
                                  ??_pixel_set 0077  EUSART_SetFramingErrorHandler@interruptHandler 0070  
                                   _TX1STAbits 019E                                audio_get@sample 0074  
               __end_of_PIN_MANAGER_Initialize 065A                     __size_of_ADC_GetConversion 0017  
